(dp1
S'1'
(dp2
S'nr'
p3
I1
sS'lastValid'
p4
(dp5
sS'values'
p6
(dp7
sS'slaves'
p8
(lp9
sS'times'
p10
(lp11
ssS'3'
(dp12
g3
I3
sg4
(dp13
S'Uy'
p14
I01
sS'Ux'
p15
I01
sS'Uz'
p16
I01
sS'k'
I01
sS'p'
I01
sS'omega'
p17
I01
ssg6
(dp18
g14
(lp19
F11
aF10
aF10
aF10
aF10
aF10
aF10
aF10
aF10
aF11
aF11
aF11
aF11
aF11
aF11
aF11
aF11
aF11
aF11
aF11
aF11
aF11
aF11
aF11
aF11
aF11
aF11
aF11
aF11
aF11
aF11
aF11
aF11
aF11
aF11
aF11
aF11
aF11
aF11
aF11
aF11
aF11
aF11
aF11
aF11
aF11
aF11
aF11
aF11
aF11
aF11
aF11
aF11
aF11
aF11
aF11
aF11
aF11
aF11
aF11
aF11
aF11
aF11
aF11
aF11
aF11
aF11
aF11
aF11
aF11
aF11
aF11
aF11
aF11
aF11
aF11
aF11
aF11
aF11
aF11
aF11
aF11
aF11
aF11
aF11
aF11
aF11
aF11
aF11
aF11
aF11
aF11
aF11
aF11
aF11
aF11
aF11
aF11
aF11
aF11
aF11
aF11
aF11
aF11
aF11
aF11
aF11
aF11
aF11
aF11
aF11
aF11
aF11
aF11
aF11
aF11
aF11
aF11
aF11
aF11
aF11
aF11
aF11
aF11
aF11
aF11
aF11
aF11
aF11
aF11
aF11
aF11
aF11
aF11
aF11
aF11
aF11
aF11
aF11
aF11
aF11
aF11
aF11
aF11
aF11
aF11
aF11
aF11
aF11
aF11
aF11
aF11
aF11
aF11
aF11
aF11
aF11
aF11
aF11
aF11
aF11
aF11
aF11
aF11
aF11
aF11
aF11
aF11
aF11
aF11
aF11
aF11
aF11
aF11
aF11
aF11
aF11
aF11
aF11
aF11
aF11
aF11
aF11
aF11
aF11
aF11
aF11
aF11
aF11
aF11
aF11
aF11
aF11
aF11
aF11
aF11
aF11
aF11
aF11
aF11
aF11
aF11
aF11
aF11
aF11
aF11
aF11
aF11
aF11
aF11
aF11
aF11
aF11
aF11
aF11
aF11
aF11
aF11
aF11
aF11
aF11
aF11
aF11
aF11
aF11
aF11
aF11
aF11
aF11
aF11
aF11
aF11
aF11
aF11
aF11
aF11
aF11
aF11
aF11
aF11
aF11
aF11
aF11
aF11
aF11
aF11
aF11
aF11
aF11
aF11
aF11
aF11
aF11
aF11
aF11
aF11
aF11
aF11
aF11
aF11
aF11
aF11
aF11
aF11
aF11
aF11
aF11
aF11
aF11
aF11
aF11
aF11
aF11
aF11
aF11
aF11
aF11
aF11
aF11
aF11
aF11
aF11
aF11
aF11
aF11
aF11
aF11
aF11
aF11
aF11
aF11
aF11
aF11
aF11
aF11
aF11
aF11
aF11
aF11
aF11
aF11
aF11
aF11
aF11
aF11
aF11
aF10
aF10
aF10
aF10
aF10
aF10
aF10
aF10
aF10
aF10
aF10
aF10
aF10
aF10
aF10
aF10
aF10
aF10
aF10
aF10
aF10
aF10
aF10
aF10
aF10
aF10
aF10
aF10
aF10
aF10
aF10
aF10
aF10
aF10
aF10
aF10
aF10
aF10
aF10
aF10
aF10
aF10
aF10
aF10
aF10
aF10
aF10
aF10
aF10
aF10
aF10
aF10
asg15
(lp20
F11
aF11
aF11
aF10
aF10
aF10
aF10
aF10
aF11
aF11
aF11
aF11
aF11
aF11
aF11
aF11
aF11
aF11
aF11
aF11
aF11
aF11
aF11
aF11
aF11
aF11
aF11
aF11
aF11
aF11
aF11
aF11
aF11
aF11
aF11
aF11
aF11
aF11
aF11
aF11
aF11
aF11
aF11
aF11
aF11
aF11
aF11
aF11
aF11
aF11
aF11
aF11
aF11
aF11
aF11
aF11
aF11
aF11
aF11
aF11
aF11
aF11
aF11
aF11
aF11
aF11
aF11
aF11
aF11
aF11
aF11
aF11
aF11
aF11
aF11
aF11
aF11
aF11
aF11
aF11
aF11
aF11
aF11
aF11
aF11
aF11
aF11
aF11
aF11
aF11
aF11
aF11
aF11
aF11
aF11
aF11
aF11
aF11
aF11
aF11
aF11
aF11
aF11
aF11
aF11
aF11
aF11
aF11
aF11
aF11
aF11
aF11
aF11
aF11
aF11
aF11
aF11
aF11
aF11
aF11
aF11
aF11
aF11
aF11
aF11
aF11
aF11
aF11
aF11
aF11
aF11
aF11
aF11
aF11
aF11
aF11
aF11
aF11
aF11
aF11
aF11
aF11
aF11
aF11
aF11
aF11
aF11
aF11
aF11
aF11
aF11
aF11
aF11
aF11
aF11
aF11
aF11
aF11
aF11
aF11
aF11
aF11
aF11
aF11
aF11
aF11
aF11
aF11
aF11
aF11
aF11
aF11
aF11
aF11
aF11
aF11
aF11
aF11
aF11
aF11
aF11
aF11
aF11
aF11
aF11
aF11
aF11
aF11
aF11
aF11
aF11
aF11
aF11
aF11
aF11
aF11
aF11
aF11
aF11
aF11
aF11
aF11
aF11
aF11
aF11
aF11
aF11
aF11
aF11
aF11
aF11
aF11
aF11
aF11
aF11
aF11
aF11
aF11
aF11
aF11
aF11
aF11
aF11
aF11
aF11
aF11
aF11
aF11
aF11
aF11
aF11
aF11
aF11
aF11
aF11
aF11
aF11
aF11
aF11
aF11
aF11
aF11
aF11
aF11
aF11
aF11
aF11
aF11
aF11
aF11
aF11
aF11
aF11
aF11
aF11
aF11
aF11
aF11
aF11
aF11
aF11
aF11
aF11
aF11
aF11
aF11
aF11
aF11
aF11
aF11
aF11
aF11
aF11
aF11
aF11
aF11
aF11
aF11
aF11
aF11
aF11
aF11
aF11
aF11
aF11
aF11
aF11
aF11
aF11
aF11
aF11
aF11
aF11
aF11
aF11
aF11
aF11
aF11
aF11
aF11
aF11
aF11
aF11
aF11
aF11
aF11
aF11
aF11
aF11
aF11
aF11
aF11
aF11
aF11
aF11
aF11
aF11
aF11
aF11
aF11
aF11
aF11
aF11
aF11
aF11
aF11
aF11
aF11
aF11
aF11
aF11
aF11
aF11
aF11
aF11
aF11
aF11
aF10
aF10
aF10
aF10
aF10
aF10
aF10
aF10
aF10
aF10
aF10
aF10
aF10
aF10
aF10
aF10
aF10
aF10
aF10
aF10
aF10
asg16
(lp21
F11
aF11
aF10
aF10
aF10
aF10
aF10
aF10
aF10
aF10
aF10
aF10
aF10
aF10
aF10
aF10
aF10
aF10
aF10
aF10
aF10
aF10
aF10
aF10
aF10
aF10
aF10
aF10
aF10
aF10
aF10
aF10
aF10
aF10
aF10
aF10
aF10
aF10
aF10
aF10
aF10
aF10
aF10
aF10
aF10
aF10
aF10
aF10
aF10
aF10
aF10
aF10
aF10
aF10
aF10
aF10
aF10
aF10
aF10
aF10
aF10
aF10
aF10
aF10
aF10
aF10
aF10
aF10
aF10
aF10
aF10
aF10
aF10
aF10
aF10
aF10
aF10
aF10
aF10
aF10
aF10
aF10
aF10
aF10
aF10
aF10
aF10
aF10
aF10
aF10
aF10
aF10
aF10
aF10
aF10
aF10
aF10
aF10
aF10
aF10
aF10
aF10
aF10
aF10
aF10
aF10
aF10
aF10
aF10
aF10
aF10
aF10
aF10
aF10
aF10
aF10
aF10
aF10
aF10
aF10
aF10
aF10
aF10
aF10
aF10
aF10
aF10
aF10
aF10
aF10
aF10
aF10
aF10
aF10
aF10
aF10
aF10
aF10
aF10
aF10
aF10
aF10
aF10
aF10
aF10
aF10
aF10
aF10
aF10
aF10
aF10
aF10
aF10
aF10
aF10
aF10
aF10
aF10
aF10
aF10
aF10
aF10
aF10
aF10
aF10
aF10
aF10
aF10
aF10
aF10
aF10
aF10
aF10
aF10
aF10
aF10
aF10
aF10
aF10
aF10
aF10
aF10
aF10
aF10
aF10
aF10
aF10
aF10
aF10
aF10
aF10
aF10
aF10
aF10
aF10
aF10
aF10
aF10
aF10
aF10
aF10
aF10
aF10
aF10
aF10
aF10
aF10
aF10
aF10
aF10
aF10
aF10
aF10
aF10
aF10
aF10
aF10
aF10
aF10
aF10
aF10
aF10
aF10
aF10
aF10
aF10
aF10
aF10
aF10
aF10
aF10
aF10
aF10
aF10
aF10
aF10
aF10
aF10
aF10
aF10
aF10
aF10
aF10
aF10
aF10
aF10
aF10
aF10
aF10
aF10
aF10
aF10
aF10
aF10
aF10
aF10
aF10
aF10
aF10
aF10
aF10
aF10
aF10
aF10
aF10
aF10
aF10
aF10
aF10
aF10
aF10
aF10
aF10
aF10
aF10
aF10
aF10
aF10
aF10
aF10
aF10
aF10
aF10
aF10
aF10
aF10
aF10
aF10
aF10
aF10
aF10
aF10
aF10
aF10
aF10
aF10
aF10
aF10
aF10
aF10
aF10
aF10
aF10
aF10
aF10
aF10
aF10
aF10
aF10
aF10
aF10
aF10
aF10
aF10
aF10
aF10
aF10
aF10
aF10
aF10
aF10
aF10
aF10
aF10
aF10
aF10
aF10
aF10
aF10
aF10
aF10
aF10
aF10
aF10
aF10
aF10
aF10
aF10
aF10
aF10
aF10
aF10
aF10
aF10
aF10
aF10
aF10
aF10
aF10
aF10
aF10
aF10
aF10
aF10
aF10
aF10
aF10
aF10
asS'k'
(lp22
F10
aF10
aF10
aF10
aF10
aF10
aF10
aF10
aF10
aF10
aF10
aF10
aF10
aF10
aF10
aF10
aF10
aF10
aF10
aF10
aF10
aF10
aF10
aF10
aF10
aF10
aF10
aF10
aF10
aF10
aF10
aF10
aF10
aF10
aF10
aF10
aF9
aF9
aF9
aF9
aF9
aF9
aF9
aF9
aF9
aF9
aF9
aF9
aF9
aF9
aF9
aF9
aF9
aF9
aF9
aF8
aF8
aF8
aF8
aF8
aF8
aF8
aF8
aF8
aF8
aF8
aF8
aF8
aF8
aF8
aF8
aF8
aF8
aF8
aF8
aF8
aF8
aF8
aF8
aF8
aF8
aF8
aF8
aF7
aF7
aF7
aF7
aF7
aF7
aF7
aF7
aF7
aF7
aF7
aF7
aF7
aF7
aF7
aF7
aF7
aF7
aF7
aF7
aF7
aF7
aF7
aF7
aF7
aF7
aF7
aF7
aF7
aF7
aF7
aF7
aF7
aF7
aF7
aF7
aF7
aF7
aF7
aF7
aF7
aF7
aF7
aF7
aF7
aF7
aF7
aF7
aF7
aF7
aF7
aF7
aF7
aF7
aF7
aF7
aF7
aF7
aF7
aF7
aF7
aF7
aF7
aF7
aF7
aF7
aF7
aF7
aF7
aF7
aF7
aF7
aF7
aF7
aF7
aF7
aF7
aF7
aF7
aF7
aF7
aF7
aF7
aF7
aF7
aF7
aF7
aF7
aF7
aF7
aF7
aF7
aF7
aF7
aF7
aF7
aF7
aF7
aF7
aF7
aF7
aF7
aF7
aF7
aF7
aF7
aF7
aF7
aF7
aF7
aF7
aF7
aF7
aF7
aF7
aF7
aF7
aF7
aF7
aF7
aF7
aF7
aF7
aF7
aF7
aF7
aF7
aF7
aF7
aF7
aF7
aF7
aF7
aF7
aF7
aF7
aF7
aF7
aF7
aF7
aF7
aF7
aF7
aF7
aF7
aF7
aF7
aF7
aF7
aF7
aF7
aF7
aF7
aF7
aF7
aF7
aF7
aF7
aF7
aF7
aF7
aF7
aF7
aF7
aF7
aF7
aF7
aF7
aF7
aF7
aF7
aF8
aF7
aF7
aF7
aF7
aF7
aF7
aF7
aF7
aF7
aF7
aF7
aF7
aF7
aF7
aF7
aF7
aF7
aF7
aF7
aF7
aF7
aF7
aF7
aF7
aF7
aF7
aF7
aF7
aF7
aF7
aF7
aF7
aF7
aF7
aF7
aF7
aF7
aF7
aF7
aF7
aF7
aF7
aF7
aF7
aF7
aF7
aF7
aF7
aF7
aF7
aF7
aF7
aF7
aF7
aF7
aF7
aF7
aF7
aF7
aF7
aF7
aF7
aF7
aF7
aF7
aF7
aF7
aF7
aF7
aF7
aF7
aF7
aF7
aF7
aF7
aF7
aF7
aF7
aF7
aF7
aF7
aF7
aF7
aF7
aF7
aF7
aF7
aF7
aF7
aF7
aF7
aF7
aF7
aF7
aF7
aF7
aF7
aF7
aF7
aF7
aF7
aF7
aF7
asS'p'
(lp23
F858
aF840
aF851
aF854
aF831
aF827
aF830
aF793
aF587
aF591
aF585
aF561
aF599
aF592
aF626
aF558
aF438
aF475
aF591
aF627
aF424
aF547
aF443
aF302
aF567
aF714
aF686
aF510
aF560
aF574
aF297
aF565
aF616
aF608
aF671
aF771
aF691
aF397
aF528
aF645
aF609
aF742
aF791
aF782
aF550
aF532
aF590
aF781
aF812
aF560
aF573
aF625
aF586
aF752
aF725
aF784
aF704
aF762
aF531
aF353
aF553
aF723
aF570
aF347
aF628
aF631
aF541
aF489
aF531
aF578
aF557
aF806
aF806
aF672
aF451
aF534
aF579
aF728
aF805
aF784
aF670
aF467
aF487
aF631
aF773
aF769
aF730
aF549
aF441
aF478
aF567
aF716
aF784
aF754
aF762
aF419
aF427
aF505
aF604
aF584
aF761
aF651
aF278
aF605
aF501
aF579
aF498
aF682
aF651
aF429
aF686
aF519
aF606
aF585
aF771
aF667
aF448
aF640
aF486
aF549
aF515
aF803
aF766
aF603
aF756
aF593
aF551
aF542
aF741
aF639
aF555
aF364
aF451
aF564
aF670
aF662
aF746
aF751
aF501
aF376
aF514
aF593
aF556
aF819
aF588
aF512
aF431
aF494
aF653
aF367
aF585
aF530
aF349
aF397
aF506
aF491
aF575
aF492
aF497
aF311
aF377
aF477
aF565
aF500
aF451
aF513
aF334
aF374
aF490
aF537
aF589
aF392
aF458
aF328
aF425
aF521
aF618
aF643
aF407
aF520
aF307
aF361
aF505
aF572
aF698
aF480
aF539
aF491
aF382
aF396
aF428
aF526
aF519
aF576
aF485
aF271
aF396
aF463
aF495
aF513
aF558
aF608
aF509
aF345
aF451
aF444
aF472
aF652
aF709
aF507
aF298
aF563
aF581
aF654
aF475
aF501
aF419
aF408
aF499
aF540
aF586
aF504
aF441
aF419
aF419
aF457
aF670
aF609
aF450
aF525
aF517
aF463
aF572
aF699
aF649
aF477
aF492
aF479
aF461
aF479
aF581
aF675
aF512
aF464
aF447
aF493
aF471
aF612
aF650
aF645
aF510
aF342
aF456
aF510
aF467
aF591
aF657
aF524
aF487
aF350
aF500
aF426
aF555
aF545
aF503
aF495
aF443
aF420
aF425
aF599
aF614
aF600
aF571
aF572
aF278
aF469
aF474
aF540
aF524
aF544
aF618
aF454
aF481
aF476
aF509
aF575
aF636
aF623
aF424
aF444
aF463
aF633
aF757
aF424
aF573
aF435
aF549
aF539
aF671
aF654
aF559
aF511
aF361
aF513
aF565
aF604
aF730
aF654
aF501
aF473
aF592
aF613
aF741
aF770
aF743
aF543
aF517
aF474
aF437
aF613
aF708
aF755
aF500
aF489
aF507
aF482
aF530
aF777
aF791
aF520
aF639
aF474
aF450
aF461
aF607
aF786
aF370
aF723
aF567
aF473
aF505
aF652
aF630
aF450
aF702
aF572
aF274
aF469
aF493
aF504
aF529
aF660
aF645
aF482
aF371
aF468
aF675
aF593
asg17
(lp24
F10
aF10
aF10
aF10
aF10
aF10
aF10
aF10
aF10
aF10
aF9
aF9
aF9
aF9
aF9
aF9
aF8
aF8
aF8
aF8
aF8
aF8
aF8
aF8
aF8
aF8
aF8
aF8
aF8
aF8
aF8
aF8
aF8
aF8
aF8
aF8
aF8
aF8
aF8
aF8
aF8
aF8
aF8
aF8
aF8
aF8
aF8
aF8
aF8
aF8
aF8
aF8
aF8
aF8
aF8
aF8
aF8
aF8
aF8
aF8
aF8
aF8
aF8
aF8
aF8
aF8
aF7
aF8
aF8
aF7
aF7
aF7
aF7
aF7
aF7
aF7
aF7
aF7
aF7
aF7
aF7
aF7
aF7
aF7
aF7
aF7
aF7
aF7
aF7
aF7
aF7
aF7
aF7
aF7
aF7
aF7
aF7
aF7
aF7
aF7
aF7
aF7
aF7
aF7
aF7
aF7
aF7
aF7
aF7
aF7
aF7
aF7
aF7
aF7
aF7
aF7
aF7
aF7
aF7
aF7
aF7
aF7
aF7
aF7
aF7
aF7
aF7
aF7
aF7
aF7
aF7
aF7
aF7
aF7
aF7
aF7
aF7
aF7
aF7
aF7
aF7
aF7
aF7
aF7
aF7
aF7
aF7
aF7
aF8
aF7
aF7
aF7
aF7
aF7
aF7
aF7
aF7
aF7
aF7
aF7
aF7
aF7
aF7
aF7
aF7
aF7
aF7
aF7
aF7
aF7
aF7
aF7
aF7
aF7
aF7
aF7
aF7
aF7
aF7
aF7
aF7
aF7
aF7
aF7
aF7
aF7
aF7
aF7
aF7
aF7
aF7
aF7
aF7
aF7
aF7
aF7
aF7
aF7
aF7
aF7
aF7
aF7
aF7
aF7
aF7
aF7
aF7
aF7
aF7
aF7
aF7
aF7
aF7
aF8
aF7
aF8
aF7
aF7
aF7
aF7
aF7
aF7
aF7
aF7
aF7
aF7
aF7
aF7
aF7
aF7
aF7
aF7
aF7
aF7
aF7
aF7
aF7
aF7
aF7
aF7
aF7
aF7
aF7
aF7
aF7
aF7
aF7
aF7
aF7
aF7
aF7
aF7
aF7
aF7
aF7
aF7
aF7
aF7
aF7
aF7
aF7
aF7
aF7
aF7
aF7
aF7
aF7
aF7
aF7
aF7
aF7
aF7
aF7
aF7
aF7
aF7
aF7
aF7
aF8
aF7
aF7
aF7
aF7
aF7
aF7
aF7
aF7
aF7
aF7
aF7
aF7
aF7
aF7
aF7
aF7
aF7
aF7
aF7
aF7
aF7
aF7
aF7
aF7
aF7
aF7
aF7
aF7
aF7
aF7
aF7
aF7
aF7
aF7
aF7
aF7
aF7
aF7
aF7
aF7
aF7
aF7
aF8
aF7
aF7
aF7
aF7
aF7
aF7
aF7
aF7
aF7
aF7
aF7
aF7
aF7
aF7
aF7
aF7
aF7
aF7
aF7
aF7
aF8
aF8
aF7
aF7
aF7
aF7
aF8
aF8
aF8
aF8
aF8
aF7
aF8
aF8
aF8
aF8
assg8
(lp25
sg10
(lp26
F0.0035000000000000001
aF0.0052500000000000003
aF0.0070000000000000001
aF0.0087500000000000008
aF0.010500000000000001
aF0.01225
aF0.014
aF0.01575
aF0.017500000000000002
aF0.01925
aF0.021000000000000001
aF0.022749999999999999
aF0.024500000000000001
aF0.026249999999999999
aF0.028000000000000001
aF0.029749999999999999
aF0.0315
aF0.033250000000000002
aF0.035000000000000003
aF0.036749999999999998
aF0.0385
aF0.040250000000000001
aF0.042000000000000003
aF0.043749999999999997
aF0.045499999999999999
aF0.04725
aF0.049000000000000002
aF0.050750000000000003
aF0.052499999999999998
aF0.05425
aF0.056000000000000001
aF0.057750000000000003
aF0.059499999999999997
aF0.061249999999999999
aF0.063
aF0.064750000000000002
aF0.066500000000000004
aF0.068250000000000005
aF0.070000000000000007
aF0.071749999999999994
aF0.073499999999999996
aF0.075249999999999997
aF0.076999999999999999
aF0.078750000000000001
aF0.080500000000000002
aF0.082250000000000004
aF0.084000000000000005
aF0.085750000000000007
aF0.087499999999999994
aF0.089249999999999996
aF0.090999999999999998
aF0.092749999999999999
aF0.094500000000000001
aF0.096250000000000002
aF0.098000000000000004
aF0.099750000000000005
aF0.10150000000000001
aF0.10324999999999999
aF0.105
aF0.10675
aF0.1085
aF0.11025
aF0.112
aF0.11375
aF0.11550000000000001
aF0.11724999999999999
aF0.11899999999999999
aF0.12075
aF0.1225
aF0.12425
aF0.126
aF0.12775
aF0.1295
aF0.13125000000000001
aF0.13300000000000001
aF0.13475000000000001
aF0.13650000000000001
aF0.13825000000000001
aF0.14000000000000001
aF0.14174999999999999
aF0.14349999999999999
aF0.14524999999999999
aF0.14699999999999999
aF0.14874999999999999
aF0.15049999999999999
aF0.15225
aF0.154
aF0.15575
aF0.1575
aF0.15925
aF0.161
aF0.16275000000000001
aF0.16450000000000001
aF0.16625000000000001
aF0.16800000000000001
aF0.16975000000000001
aF0.17150000000000001
aF0.17324999999999999
aF0.17499999999999999
aF0.17674999999999999
aF0.17849999999999999
aF0.18024999999999999
aF0.182
aF0.18375
aF0.1855
aF0.18725
aF0.189
aF0.19075
aF0.1925
aF0.19425000000000001
aF0.19600000000000001
aF0.19775000000000001
aF0.19950000000000001
aF0.20125000000000001
aF0.20300000000000001
aF0.20474999999999999
aF0.20649999999999999
aF0.20824999999999999
aF0.20999999999999999
aF0.21174999999999999
aF0.2135
aF0.21525
aF0.217
aF0.21875
aF0.2205
aF0.22225
aF0.224
aF0.22575000000000001
aF0.22750000000000001
aF0.22925000000000001
aF0.23100000000000001
aF0.23275000000000001
aF0.23449999999999999
aF0.23624999999999999
aF0.23799999999999999
aF0.23974999999999999
aF0.24149999999999999
aF0.24324999999999999
aF0.245
aF0.24675
aF0.2485
aF0.25024999999999997
aF0.252
aF0.25374999999999998
aF0.2555
aF0.25724999999999998
aF0.25900000000000001
aF0.26074999999999998
aF0.26250000000000001
aF0.26424999999999998
aF0.26600000000000001
aF0.26774999999999999
aF0.26950000000000002
aF0.27124999999999999
aF0.27300000000000002
aF0.27474999999999999
aF0.27650000000000002
aF0.27825
aF0.28000000000000003
aF0.28175
aF0.28349999999999997
aF0.28525
aF0.28699999999999998
aF0.28875000000000001
aF0.29049999999999998
aF0.29225000000000001
aF0.29399999999999998
aF0.29575000000000001
aF0.29749999999999999
aF0.29925000000000002
aF0.30099999999999999
aF0.30275000000000002
aF0.30449999999999999
aF0.30625000000000002
aF0.308
aF0.30975000000000003
aF0.3115
aF0.31324999999999997
aF0.315
aF0.31674999999999998
aF0.31850000000000001
aF0.32024999999999998
aF0.32200000000000001
aF0.32374999999999998
aF0.32550000000000001
aF0.32724999999999999
aF0.32900000000000001
aF0.33074999999999999
aF0.33250000000000002
aF0.33424999999999999
aF0.33600000000000002
aF0.33774999999999999
aF0.33950000000000002
aF0.34125
aF0.34300000000000003
aF0.34475
aF0.34649999999999997
aF0.34825
aF0.34999999999999998
aF0.35175000000000001
aF0.35349999999999998
aF0.35525000000000001
aF0.35699999999999998
aF0.35875000000000001
aF0.36049999999999999
aF0.36225000000000002
aF0.36399999999999999
aF0.36575000000000002
aF0.36749999999999999
aF0.36925000000000002
aF0.371
aF0.37275000000000003
aF0.3745
aF0.37624999999999997
aF0.378
aF0.37974999999999998
aF0.38150000000000001
aF0.38324999999999998
aF0.38500000000000001
aF0.38674999999999998
aF0.38850000000000001
aF0.39024999999999999
aF0.39200000000000002
aF0.39374999999999999
aF0.39550000000000002
aF0.39724999999999999
aF0.39900000000000002
aF0.40075
aF0.40250000000000002
aF0.40425
aF0.40600000000000003
aF0.40775
aF0.40949999999999998
aF0.41125
aF0.41299999999999998
aF0.41475000000000001
aF0.41649999999999998
aF0.41825000000000001
aF0.41999999999999998
aF0.42175000000000001
aF0.42349999999999999
aF0.42525000000000002
aF0.42699999999999999
aF0.42875000000000002
aF0.43049999999999999
aF0.43225000000000002
aF0.434
aF0.43575000000000003
aF0.4375
aF0.43924999999999997
aF0.441
aF0.44274999999999998
aF0.44450000000000001
aF0.44624999999999998
aF0.44800000000000001
aF0.44974999999999998
aF0.45150000000000001
aF0.45324999999999999
aF0.45500000000000002
aF0.45674999999999999
aF0.45850000000000002
aF0.46024999999999999
aF0.46200000000000002
aF0.46375
aF0.46550000000000002
aF0.46725
aF0.46899999999999997
aF0.47075
aF0.47249999999999998
aF0.47425
aF0.47599999999999998
aF0.47775000000000001
aF0.47949999999999998
aF0.48125000000000001
aF0.48299999999999998
aF0.48475000000000001
aF0.48649999999999999
aF0.48825000000000002
aF0.48999999999999999
aF0.49175000000000002
aF0.49349999999999999
aF0.49525000000000002
aF0.497
aF0.49875000000000003
aF0.50049999999999994
aF0.50224999999999997
aF0.504
aF0.50575000000000003
aF0.50749999999999995
aF0.50924999999999998
aF0.51100000000000001
aF0.51275000000000004
aF0.51449999999999996
aF0.51624999999999999
aF0.51800000000000002
aF0.51975000000000005
aF0.52149999999999996
aF0.52324999999999999
aF0.52500000000000002
aF0.52675000000000005
aF0.52849999999999997
aF0.53025
aF0.53200000000000003
aF0.53374999999999995
aF0.53549999999999998
aF0.53725000000000001
aF0.53900000000000003
aF0.54074999999999995
aF0.54249999999999998
aF0.54425000000000001
aF0.54600000000000004
aF0.54774999999999996
aF0.54949999999999999
aF0.55125000000000002
aF0.55300000000000005
aF0.55474999999999997
aF0.55649999999999999
aF0.55825000000000002
aF0.56000000000000005
aF0.56174999999999997
aF0.5635
aF0.56525000000000003
aF0.56699999999999995
aF0.56874999999999998
aF0.57050000000000001
aF0.57225000000000004
aF0.57399999999999995
aF0.57574999999999998
aF0.57750000000000001
aF0.57925000000000004
aF0.58099999999999996
aF0.58274999999999999
aF0.58450000000000002
aF0.58625000000000005
aF0.58799999999999997
aF0.58975
aF0.59150000000000003
aF0.59325000000000006
aF0.59499999999999997
aF0.59675
aF0.59850000000000003
aF0.60024999999999995
aF0.60199999999999998
aF0.60375000000000001
aF0.60550000000000004
aF0.60724999999999996
aF0.60899999999999999
aF0.61075000000000002
aF0.61250000000000004
aF0.61424999999999996
aF0.61599999999999999
aF0.61775000000000002
aF0.61950000000000005
aF0.62124999999999997
aF0.623
aF0.62475000000000003
aF0.62649999999999995
aF0.62824999999999998
assS'2'
(dp27
g3
I2
sg4
(dp28
S'Uz_final'
p29
I01
sS'Uz_iterations'
p30
I01
sS'p_final'
p31
I01
sS'Ux_iterations'
p32
I01
sS'Uy'
p33
I01
sS'Ux'
p34
I01
sS'Uz'
p35
I01
sS'omega_iterations'
p36
I01
sS'k'
I01
sS'p_iterations'
p37
I01
sS'omega_final'
p38
I01
sS'p'
I01
sS'k_final'
p39
I01
sS'k_iterations'
p40
I01
sS'Uy_final'
p41
I01
sS'Ux_final'
p42
I01
sS'Uy_iterations'
p43
I01
sS'omega'
p44
I01
ssg6
(dp45
g29
(lp46
F4.4898700000000001e-08
aF1.1580199999999999e-08
aF7.0579899999999995e-07
aF4.0346399999999999e-07
aF1.82265e-07
aF1.2732700000000001e-07
aF9.1791299999999994e-08
aF5.4368500000000001e-08
aF4.7352099999999998e-08
aF3.3111599999999997e-08
aF2.23805e-08
aF1.7442499999999999e-08
aF1.39285e-08
aF1.1580500000000001e-08
aF1.0884900000000001e-08
aF8.9628199999999995e-09
aF8.0346899999999993e-09
aF7.4065999999999996e-09
aF7.4330700000000003e-09
aF6.9755999999999998e-09
aF6.1700099999999999e-09
aF5.44802e-09
aF4.3244900000000002e-09
aF4.1891899999999997e-09
aF4.1509900000000004e-09
aF4.21035e-09
aF4.6687400000000002e-09
aF4.0158000000000001e-09
aF4.8420699999999996e-09
aF3.89352e-09
aF2.9566900000000001e-09
aF3.2934699999999998e-09
aF3.7564199999999997e-09
aF3.8283899999999998e-09
aF3.7461699999999997e-09
aF4.5411399999999999e-09
aF3.33888e-09
aF2.6618499999999999e-09
aF2.4337600000000001e-09
aF2.8058399999999999e-09
aF3.0972399999999999e-09
aF3.2653399999999998e-09
aF3.9251299999999997e-09
aF2.96408e-09
aF2.0344099999999998e-09
aF2.1325999999999999e-09
aF2.12797e-09
aF2.1626600000000001e-09
aF2.39532e-09
aF2.6037300000000001e-09
aF2.5040799999999999e-09
aF1.82729e-09
aF1.5171799999999999e-09
aF1.4687200000000001e-09
aF1.9138400000000001e-09
aF1.9366700000000001e-09
aF1.8679300000000002e-09
aF2.5610000000000002e-09
aF1.5808e-09
aF1.3435e-09
aF1.36317e-09
aF1.5359e-09
aF1.7442e-09
aF1.52416e-09
aF2.7281899999999999e-09
aF1.8453e-09
aF1.2946000000000001e-09
aF1.34649e-09
aF1.4674999999999999e-09
aF1.59722e-09
aF1.41479e-09
aF2.8166099999999999e-09
aF1.76806e-09
aF1.54045e-09
aF1.1928000000000001e-09
aF1.2034399999999999e-09
aF1.4417499999999999e-09
aF1.80572e-09
aF2.7466799999999999e-09
aF1.73065e-09
aF1.3532099999999999e-09
aF1.3171400000000001e-09
aF1.21054e-09
aF1.5089800000000001e-09
aF1.73882e-09
aF2.2261e-09
aF1.9548100000000002e-09
aF1.5921200000000001e-09
aF1.4458200000000001e-09
aF1.71327e-09
aF2.10654e-09
aF2.2641499999999999e-09
aF2.2802900000000002e-09
aF2.3915100000000002e-09
aF1.6926400000000001e-09
aF1.5853299999999999e-09
aF1.6840399999999999e-09
aF1.8648300000000001e-09
aF2.0336899999999998e-09
aF1.9741300000000001e-09
aF2.4304899999999999e-09
aF1.8772199999999999e-09
aF1.40898e-09
aF1.4847599999999999e-09
aF1.4646700000000001e-09
aF1.73108e-09
aF1.8677199999999998e-09
aF2.6357200000000001e-09
aF1.88746e-09
aF1.4959199999999999e-09
aF1.4698e-09
aF1.4395799999999999e-09
aF1.55098e-09
aF1.78383e-09
aF2.5751800000000002e-09
aF1.8565699999999999e-09
aF1.47657e-09
aF1.49778e-09
aF1.5670000000000001e-09
aF1.69945e-09
aF1.82857e-09
aF2.3946200000000002e-09
aF2.0023200000000002e-09
aF1.6309800000000001e-09
aF1.7950700000000001e-09
aF1.6757200000000001e-09
aF1.77129e-09
aF1.84404e-09
aF2.2756399999999998e-09
aF2.2755999999999999e-09
aF1.8401700000000001e-09
aF1.7282299999999999e-09
aF1.5506399999999999e-09
aF1.5785299999999999e-09
aF1.66228e-09
aF1.9728600000000002e-09
aF2.0269000000000001e-09
aF1.7216200000000001e-09
aF1.6511300000000001e-09
aF1.8795e-09
aF2.0955199999999998e-09
aF1.9397100000000001e-09
aF1.61916e-09
aF2.0162000000000001e-09
aF1.53563e-09
aF1.2600800000000001e-09
aF1.1555600000000001e-09
aF1.33058e-09
aF1.77734e-09
aF1.52539e-09
aF1.9608600000000002e-09
aF1.6318000000000001e-09
aF1.4936299999999999e-09
aF1.21256e-09
aF1.28854e-09
aF1.3601000000000001e-09
aF1.3002999999999999e-09
aF2.1704100000000002e-09
aF1.70731e-09
aF1.56781e-09
aF1.2344e-09
aF1.3215e-09
aF9.9591300000000005e-10
aF1.1138599999999999e-09
aF1.78686e-09
aF1.77927e-09
aF1.25817e-09
aF1.09478e-09
aF1.12373e-09
aF1.2766499999999999e-09
aF1.18865e-09
aF1.55229e-09
aF1.4129400000000001e-09
aF1.17324e-09
aF1.22922e-09
aF9.9641200000000009e-10
aF1.0498300000000001e-09
aF1.20268e-09
aF1.3540000000000001e-09
aF1.5705700000000001e-09
aF1.4381300000000001e-09
aF1.1302799999999999e-09
aF1.2713400000000001e-09
aF1.2079699999999999e-09
aF1.1697899999999999e-09
aF1.2060899999999999e-09
aF1.5797599999999999e-09
aF1.3978700000000001e-09
aF1.0740599999999999e-09
aF1.18655e-09
aF1.0182299999999999e-09
aF1.2523700000000001e-09
aF1.25364e-09
aF1.71387e-09
aF1.31557e-09
aF1.22261e-09
aF1.1743e-09
aF1.13679e-09
aF1.00149e-09
aF1.2946799999999999e-09
aF1.6326200000000001e-09
aF1.3738400000000001e-09
aF1.22271e-09
aF1.37634e-09
aF1.29201e-09
aF1.22162e-09
aF1.34775e-09
aF1.48433e-09
aF1.5056099999999999e-09
aF1.39808e-09
aF1.29368e-09
aF1.23787e-09
aF1.3236799999999999e-09
aF1.4244699999999999e-09
aF1.3823299999999999e-09
aF1.87386e-09
aF1.32743e-09
aF1.09263e-09
aF1.0378700000000001e-09
aF1.1467600000000001e-09
aF1.3441400000000001e-09
aF1.15965e-09
aF1.5124700000000001e-09
aF1.1898699999999999e-09
aF1.09133e-09
aF1.0774e-09
aF1.0207600000000001e-09
aF1.10228e-09
aF1.2384100000000001e-09
aF1.67386e-09
aF1.4794700000000001e-09
aF1.2937600000000001e-09
aF1.1971900000000001e-09
aF1.17151e-09
aF1.1900599999999999e-09
aF1.34172e-09
aF1.76011e-09
aF1.6274399999999999e-09
aF1.2807400000000001e-09
aF1.35763e-09
aF1.3269300000000001e-09
aF1.32419e-09
aF1.4763e-09
aF1.83163e-09
aF1.6746100000000001e-09
aF1.54043e-09
aF1.33405e-09
aF1.38993e-09
aF1.41811e-09
aF1.5258599999999999e-09
aF1.56854e-09
aF1.6930300000000001e-09
aF1.5351399999999999e-09
aF1.51446e-09
aF1.6202099999999999e-09
aF1.3762000000000001e-09
aF1.5314200000000001e-09
aF1.4864199999999999e-09
aF1.63649e-09
aF1.27603e-09
aF1.24255e-09
aF1.1499900000000001e-09
aF1.2837300000000001e-09
aF1.3337000000000001e-09
aF1.38169e-09
aF1.64199e-09
aF1.3566300000000001e-09
aF1.16796e-09
aF1.2362699999999999e-09
aF1.44355e-09
aF1.66952e-09
aF1.58657e-09
aF1.6094e-09
aF1.44477e-09
aF1.3172e-09
aF1.3073800000000001e-09
aF1.4815900000000001e-09
aF1.76808e-09
aF2.0229300000000002e-09
aF1.5489299999999999e-09
aF1.5378599999999999e-09
aF1.3669499999999999e-09
aF1.2266200000000001e-09
aF1.43533e-09
aF1.4020999999999999e-09
aF1.6470600000000001e-09
aF1.55282e-09
aF1.5339300000000001e-09
aF1.21753e-09
aF1.03608e-09
aF1.06125e-09
aF1.2287700000000001e-09
aF1.58729e-09
aF1.4100299999999999e-09
aF1.82324e-09
aF1.5106400000000001e-09
aF1.0138e-09
aF9.2238199999999999e-10
aF9.736080000000001e-10
aF1.3311700000000001e-09
aF1.1329200000000001e-09
aF1.8746300000000002e-09
aF1.4920399999999999e-09
aF1.1923900000000001e-09
aF1.2330899999999999e-09
aF9.9072000000000007e-10
aF1.3661299999999999e-09
aF1.34987e-09
aF1.9568199999999999e-09
aF1.58958e-09
aF1.39714e-09
aF1.1546499999999999e-09
aF1.1282499999999999e-09
aF1.22632e-09
aF1.3468400000000001e-09
aF2.1415700000000001e-09
aF1.6162099999999999e-09
aF1.4982299999999999e-09
aF1.3261100000000001e-09
aF1.2145299999999999e-09
aF1.2366599999999999e-09
aF1.4856900000000001e-09
aF1.6123200000000001e-09
aF1.37409e-09
aF1.1883999999999999e-09
aF1.2862e-09
aF1.1318600000000001e-09
aF1.1314599999999999e-09
aF1.3847600000000001e-09
aF1.2893799999999999e-09
aF1.37781e-09
aF1.0458300000000001e-09
aF9.55867e-10
aF1.01137e-09
aF1.17148e-09
aF1.6097499999999999e-09
aF1.46765e-09
aF1.5693900000000001e-09
aF1.2366599999999999e-09
aF1.10724e-09
aF1.18845e-09
aF1.32576e-09
aF1.45487e-09
aF1.37627e-09
aF1.8425899999999999e-09
aF1.5071999999999999e-09
aF1.28893e-09
aF1.36551e-09
aF1.5531400000000001e-09
aF1.68846e-09
aF1.71336e-09
aF1.9807099999999999e-09
aF1.63661e-09
aF1.53447e-09
aF1.5188199999999999e-09
aF1.7694499999999999e-09
aF1.65578e-09
aF2.2922399999999999e-09
asg30
(lp47
F11
aF11
aF10
aF10
aF10
aF10
aF10
aF10
aF10
aF10
aF10
aF10
aF10
aF10
aF10
aF10
aF10
aF10
aF10
aF10
aF10
aF10
aF10
aF10
aF10
aF10
aF10
aF10
aF10
aF10
aF10
aF10
aF10
aF10
aF10
aF10
aF10
aF10
aF10
aF10
aF10
aF10
aF10
aF10
aF10
aF10
aF10
aF10
aF10
aF10
aF10
aF10
aF10
aF10
aF10
aF10
aF10
aF10
aF10
aF10
aF10
aF10
aF10
aF10
aF10
aF10
aF10
aF10
aF10
aF10
aF10
aF10
aF10
aF10
aF10
aF10
aF10
aF10
aF10
aF10
aF10
aF10
aF10
aF10
aF10
aF10
aF10
aF10
aF10
aF10
aF10
aF10
aF10
aF10
aF10
aF10
aF10
aF10
aF10
aF10
aF10
aF10
aF10
aF10
aF10
aF10
aF10
aF10
aF10
aF10
aF10
aF10
aF10
aF10
aF10
aF10
aF10
aF10
aF10
aF10
aF10
aF10
aF10
aF10
aF10
aF10
aF10
aF10
aF10
aF10
aF10
aF10
aF10
aF10
aF10
aF10
aF10
aF10
aF10
aF10
aF10
aF10
aF10
aF10
aF10
aF10
aF10
aF10
aF10
aF10
aF10
aF10
aF10
aF10
aF10
aF10
aF10
aF10
aF10
aF10
aF10
aF10
aF10
aF10
aF10
aF10
aF10
aF10
aF10
aF10
aF10
aF10
aF10
aF10
aF10
aF10
aF10
aF10
aF10
aF10
aF10
aF10
aF10
aF10
aF10
aF10
aF10
aF10
aF10
aF10
aF10
aF10
aF10
aF10
aF10
aF10
aF10
aF10
aF10
aF10
aF10
aF10
aF10
aF10
aF10
aF10
aF10
aF10
aF10
aF10
aF10
aF10
aF10
aF10
aF10
aF10
aF10
aF10
aF10
aF10
aF10
aF10
aF10
aF10
aF10
aF10
aF10
aF10
aF10
aF10
aF10
aF10
aF10
aF10
aF10
aF10
aF10
aF10
aF10
aF10
aF10
aF10
aF10
aF10
aF10
aF10
aF10
aF10
aF10
aF10
aF10
aF10
aF10
aF10
aF10
aF10
aF10
aF10
aF10
aF10
aF10
aF10
aF10
aF10
aF10
aF10
aF10
aF10
aF10
aF10
aF10
aF10
aF10
aF10
aF10
aF10
aF10
aF10
aF10
aF10
aF10
aF10
aF10
aF10
aF10
aF10
aF10
aF10
aF10
aF10
aF10
aF10
aF10
aF10
aF10
aF10
aF10
aF10
aF10
aF10
aF10
aF10
aF10
aF10
aF10
aF10
aF10
aF10
aF10
aF10
aF10
aF10
aF10
aF10
aF10
aF10
aF10
aF10
aF10
aF10
aF10
aF10
aF10
aF10
aF10
aF10
aF10
aF10
aF10
aF10
aF10
aF10
aF10
aF10
aF10
aF10
aF10
aF10
aF10
aF10
aF10
aF10
aF10
aF10
aF10
aF10
aF10
aF10
aF10
aF10
aF10
aF10
aF10
aF10
aF10
aF10
aF10
aF10
asg31
(lp48
F5.0747300000000001e-05
aF4.2632400000000002e-05
aF2.6128000000000001e-05
aF3.0807199999999999e-05
aF1.99978e-05
aF1.8057300000000001e-05
aF1.6505299999999999e-05
aF1.1968599999999999e-05
aF1.3403299999999999e-05
aF9.0975599999999997e-06
aF1.05476e-05
aF1.05436e-05
aF9.4680699999999996e-06
aF1.09493e-05
aF1.12427e-05
aF8.2681899999999992e-06
aF8.9514500000000005e-06
aF8.6430100000000008e-06
aF7.1903899999999999e-06
aF6.0701300000000001e-06
aF5.65696e-06
aF5.4495199999999998e-06
aF4.9414200000000004e-06
aF4.7880499999999998e-06
aF4.1317900000000001e-06
aF4.4620699999999996e-06
aF3.8537900000000004e-06
aF4.2161799999999998e-06
aF4.7292000000000004e-06
aF4.3015899999999998e-06
aF4.4823100000000001e-06
aF4.3538999999999999e-06
aF4.4579199999999998e-06
aF3.8064000000000001e-06
aF3.8343800000000004e-06
aF4.01406e-06
aF4.0976200000000001e-06
aF3.9746500000000001e-06
aF4.2239999999999997e-06
aF3.7826699999999998e-06
aF3.6583600000000002e-06
aF3.7019200000000002e-06
aF3.2074e-06
aF2.6681599999999999e-06
aF2.4077400000000001e-06
aF2.7703500000000001e-06
aF2.23226e-06
aF2.1343200000000002e-06
aF2.69635e-06
aF3.0427600000000001e-06
aF3.6269599999999999e-06
aF2.7948400000000002e-06
aF2.2036899999999999e-06
aF2.49091e-06
aF2.4171900000000001e-06
aF2.82905e-06
aF2.3266700000000001e-06
aF3.3151900000000002e-06
aF3.35572e-06
aF3.1207500000000001e-06
aF2.9068799999999999e-06
aF3.0857e-06
aF2.5915999999999999e-06
aF2.69434e-06
aF4.2011100000000002e-06
aF3.7233699999999998e-06
aF2.9162600000000001e-06
aF3.2309299999999998e-06
aF3.3621500000000001e-06
aF2.7106599999999999e-06
aF2.0164400000000001e-06
aF3.0926299999999998e-06
aF2.7166299999999999e-06
aF2.9132599999999999e-06
aF2.5054300000000002e-06
aF2.40548e-06
aF2.5679500000000001e-06
aF2.7271999999999999e-06
aF3.78421e-06
aF2.4942900000000001e-06
aF2.0916699999999998e-06
aF1.8829e-06
aF2.4362099999999999e-06
aF2.1063699999999999e-06
aF1.7762100000000001e-06
aF1.89673e-06
aF2.6465099999999998e-06
aF2.51776e-06
aF3.4682699999999999e-06
aF2.6425499999999998e-06
aF1.8524099999999999e-06
aF2.5324399999999999e-06
aF1.4172200000000001e-06
aF2.0811400000000001e-06
aF2.0620100000000002e-06
aF1.9359899999999999e-06
aF1.9879500000000002e-06
aF2.4525499999999999e-06
aF1.6646300000000001e-06
aF1.3285099999999999e-06
aF2.1550199999999998e-06
aF2.2033999999999999e-06
aF2.42733e-06
aF1.8405100000000001e-06
aF1.6937e-06
aF1.97116e-06
aF1.7771399999999999e-06
aF2.3187400000000002e-06
aF1.5358200000000001e-06
aF2.2784399999999999e-06
aF1.5191500000000001e-06
aF2.2973699999999998e-06
aF2.64127e-06
aF2.0126200000000001e-06
aF2.5648200000000001e-06
aF2.31048e-06
aF3.0507700000000001e-06
aF2.46636e-06
aF2.0440700000000001e-06
aF2.5889899999999998e-06
aF2.46369e-06
aF2.21135e-06
aF2.7976699999999999e-06
aF2.9458199999999999e-06
aF2.5174499999999999e-06
aF3.0788399999999999e-06
aF2.22255e-06
aF3.05003e-06
aF2.2517800000000001e-06
aF2.87985e-06
aF2.2561400000000001e-06
aF2.31841e-06
aF2.3916699999999999e-06
aF2.2408600000000002e-06
aF2.4283399999999999e-06
aF3.04489e-06
aF3.0623299999999999e-06
aF2.7254900000000001e-06
aF2.6389499999999999e-06
aF3.7504900000000001e-06
aF3.7161100000000002e-06
aF3.4103600000000002e-06
aF2.2975399999999999e-06
aF2.4888600000000002e-06
aF2.7668899999999999e-06
aF1.7295600000000001e-06
aF2.2270999999999998e-06
aF2.0010500000000001e-06
aF3.0880599999999999e-06
aF2.2130400000000001e-06
aF2.6410799999999999e-06
aF2.1888499999999998e-06
aF2.8268300000000002e-06
aF2.8247299999999998e-06
aF2.8751900000000002e-06
aF3.3648299999999999e-06
aF2.9095299999999998e-06
aF3.7267100000000001e-06
aF2.63711e-06
aF3.4909899999999998e-06
aF2.7251700000000002e-06
aF1.93828e-06
aF2.5134500000000001e-06
aF2.8509199999999998e-06
aF3.11987e-06
aF3.4767999999999999e-06
aF2.6887499999999999e-06
aF2.9007399999999999e-06
aF2.1348100000000001e-06
aF2.4900299999999999e-06
aF2.9384199999999998e-06
aF2.87147e-06
aF2.41682e-06
aF2.9978299999999999e-06
aF3.2405300000000001e-06
aF2.7192600000000001e-06
aF2.0519499999999999e-06
aF3.6037299999999999e-06
aF3.4403700000000001e-06
aF3.1987700000000002e-06
aF3.0185500000000001e-06
aF3.3612399999999999e-06
aF2.2873800000000002e-06
aF2.3175900000000002e-06
aF2.4959399999999999e-06
aF2.83161e-06
aF2.73796e-06
aF3.1611900000000001e-06
aF3.0512699999999999e-06
aF3.3059099999999998e-06
aF2.7556700000000002e-06
aF2.7111799999999998e-06
aF2.8804599999999999e-06
aF2.7891999999999999e-06
aF2.19435e-06
aF3.1723499999999998e-06
aF2.5225899999999999e-06
aF2.9754400000000002e-06
aF2.1677e-06
aF2.9521699999999999e-06
aF2.7009700000000001e-06
aF2.9460599999999998e-06
aF2.7701899999999999e-06
aF3.5566800000000001e-06
aF3.84486e-06
aF4.45728e-06
aF4.1097400000000001e-06
aF3.0795400000000002e-06
aF3.6079600000000002e-06
aF2.7474199999999999e-06
aF3.2247199999999999e-06
aF2.7286e-06
aF2.3392899999999999e-06
aF3.26087e-06
aF2.6191200000000002e-06
aF3.7871900000000001e-06
aF2.1947899999999999e-06
aF2.51862e-06
aF2.2434800000000001e-06
aF1.7588800000000001e-06
aF2.7067799999999999e-06
aF2.3057600000000002e-06
aF2.7713399999999999e-06
aF2.5689800000000002e-06
aF1.97659e-06
aF1.92174e-06
aF2.2872299999999999e-06
aF3.0511400000000001e-06
aF2.5560499999999999e-06
aF2.2676399999999999e-06
aF2.7451499999999999e-06
aF3.5993399999999998e-06
aF3.1635299999999998e-06
aF2.8906100000000002e-06
aF2.9496699999999999e-06
aF3.2994799999999998e-06
aF3.5727000000000001e-06
aF4.2286100000000003e-06
aF3.7384300000000001e-06
aF3.9627799999999999e-06
aF3.2277e-06
aF3.8806599999999997e-06
aF2.87787e-06
aF3.70891e-06
aF3.7701300000000001e-06
aF2.9900900000000001e-06
aF3.9187299999999998e-06
aF3.4990599999999998e-06
aF3.1621300000000002e-06
aF3.09104e-06
aF2.5424899999999999e-06
aF3.2475600000000002e-06
aF3.2753600000000002e-06
aF3.6075900000000001e-06
aF4.0867500000000003e-06
aF4.0940199999999998e-06
aF4.2179099999999997e-06
aF3.1922600000000001e-06
aF3.3984599999999999e-06
aF2.6777100000000001e-06
aF2.6508199999999998e-06
aF2.85122e-06
aF3.1964500000000001e-06
aF3.3720999999999999e-06
aF2.7534199999999999e-06
aF2.9852400000000001e-06
aF2.4101099999999999e-06
aF2.4007199999999999e-06
aF2.8229699999999999e-06
aF2.6459700000000002e-06
aF3.1818499999999999e-06
aF2.9485400000000001e-06
aF2.9385400000000002e-06
aF2.4204999999999999e-06
aF2.3516500000000002e-06
aF2.5407699999999999e-06
aF2.8523499999999999e-06
aF2.8267700000000002e-06
aF3.5212599999999998e-06
aF2.3598599999999998e-06
aF2.6268699999999998e-06
aF2.1255299999999998e-06
aF3.01887e-06
aF3.9381800000000001e-06
aF4.3088400000000004e-06
aF3.3428999999999998e-06
aF2.65012e-06
aF2.8060100000000002e-06
aF2.9156000000000001e-06
aF3.4386200000000001e-06
aF2.95317e-06
aF2.5358599999999999e-06
aF2.3267699999999999e-06
aF2.1745999999999999e-06
aF2.7662400000000001e-06
aF2.6065899999999999e-06
aF2.24854e-06
aF3.0125299999999999e-06
aF3.04348e-06
aF3.21567e-06
aF2.89151e-06
aF2.84028e-06
aF2.4180700000000002e-06
aF2.4560100000000001e-06
aF4.2343799999999999e-06
aF3.5975700000000001e-06
aF2.7829500000000002e-06
aF2.90828e-06
aF3.3280799999999998e-06
aF3.48196e-06
aF3.28947e-06
aF3.7778800000000002e-06
aF3.3415999999999999e-06
aF2.4610100000000001e-06
aF3.5834700000000001e-06
aF3.7220800000000002e-06
aF3.6432699999999999e-06
aF3.5829800000000001e-06
aF3.7132700000000001e-06
aF3.3140500000000001e-06
aF3.9799499999999999e-06
aF3.2813400000000001e-06
aF3.38955e-06
aF2.24478e-06
aF2.8385399999999998e-06
aF3.41054e-06
aF3.2998999999999999e-06
aF2.7408300000000001e-06
aF3.0887600000000001e-06
aF2.5777400000000002e-06
aF2.6208e-06
aF2.8428300000000001e-06
aF2.7615900000000001e-06
aF2.4585499999999999e-06
aF2.2251600000000001e-06
aF2.4931599999999999e-06
aF1.56627e-06
aF2.1461500000000002e-06
aF2.0471599999999998e-06
aF1.79401e-06
aF1.3668199999999999e-06
aF2.44005e-06
aF2.00229e-06
aF1.92424e-06
aF2.2728999999999999e-06
aF2.15257e-06
aF1.64399e-06
aF3.1604100000000001e-06
aF2.6781199999999999e-06
aF3.2621500000000002e-06
aF2.4404099999999998e-06
aF2.3328100000000002e-06
aF2.48086e-06
aF2.1459399999999999e-06
aF2.8951399999999999e-06
aF3.06936e-06
aF2.8222100000000001e-06
aF3.9507799999999998e-06
asg32
(lp49
F11
aF11
aF11
aF10
aF10
aF10
aF10
aF10
aF11
aF11
aF11
aF11
aF11
aF11
aF11
aF11
aF11
aF11
aF11
aF11
aF11
aF11
aF11
aF11
aF11
aF11
aF11
aF11
aF11
aF11
aF11
aF11
aF11
aF11
aF11
aF11
aF11
aF11
aF11
aF11
aF11
aF11
aF11
aF11
aF11
aF11
aF11
aF11
aF11
aF11
aF11
aF11
aF11
aF11
aF11
aF11
aF11
aF11
aF11
aF11
aF11
aF11
aF11
aF11
aF11
aF11
aF11
aF11
aF11
aF11
aF11
aF11
aF11
aF11
aF11
aF11
aF11
aF11
aF11
aF11
aF11
aF11
aF11
aF11
aF11
aF11
aF11
aF11
aF11
aF11
aF11
aF11
aF11
aF11
aF11
aF11
aF11
aF11
aF11
aF11
aF11
aF11
aF11
aF11
aF11
aF11
aF11
aF11
aF11
aF11
aF11
aF11
aF11
aF11
aF11
aF11
aF11
aF11
aF11
aF11
aF11
aF11
aF11
aF11
aF11
aF11
aF11
aF11
aF11
aF11
aF11
aF11
aF11
aF11
aF11
aF11
aF11
aF11
aF11
aF11
aF11
aF11
aF11
aF11
aF11
aF11
aF11
aF11
aF11
aF11
aF11
aF11
aF11
aF11
aF11
aF11
aF11
aF11
aF11
aF11
aF11
aF11
aF11
aF11
aF11
aF11
aF11
aF11
aF11
aF11
aF11
aF11
aF11
aF11
aF11
aF11
aF11
aF11
aF11
aF11
aF11
aF11
aF11
aF11
aF11
aF11
aF11
aF11
aF11
aF11
aF11
aF11
aF11
aF11
aF11
aF11
aF11
aF11
aF11
aF11
aF11
aF11
aF11
aF11
aF11
aF11
aF11
aF11
aF11
aF11
aF11
aF11
aF11
aF11
aF11
aF11
aF11
aF11
aF11
aF11
aF11
aF11
aF11
aF11
aF11
aF11
aF11
aF11
aF11
aF11
aF11
aF11
aF11
aF11
aF11
aF11
aF11
aF11
aF11
aF11
aF11
aF11
aF11
aF11
aF11
aF11
aF11
aF11
aF11
aF11
aF11
aF11
aF11
aF11
aF11
aF11
aF11
aF11
aF11
aF11
aF11
aF11
aF11
aF11
aF11
aF11
aF11
aF11
aF11
aF11
aF11
aF11
aF11
aF11
aF11
aF11
aF11
aF11
aF11
aF11
aF11
aF11
aF11
aF11
aF11
aF11
aF11
aF11
aF11
aF11
aF11
aF11
aF11
aF11
aF11
aF11
aF11
aF11
aF11
aF11
aF11
aF11
aF11
aF11
aF11
aF11
aF11
aF11
aF11
aF11
aF11
aF11
aF11
aF11
aF11
aF11
aF11
aF11
aF11
aF11
aF11
aF11
aF11
aF11
aF11
aF11
aF11
aF11
aF11
aF11
aF11
aF11
aF11
aF11
aF11
aF11
aF11
aF10
aF10
aF10
aF10
aF10
aF10
aF10
aF10
aF10
aF10
aF10
aF10
aF10
aF10
aF10
aF10
aF10
aF10
aF10
aF10
aF10
asg33
(lp50
F0.110654
aF0.054867699999999998
aF0.032521700000000001
aF0.0219794
aF0.016250500000000001
aF0.0129748
aF0.0108465
aF0.0093953000000000005
aF0.0084349799999999999
aF0.0077862799999999996
aF0.0073341200000000004
aF0.0070069299999999998
aF0.0067622999999999997
aF0.0065428400000000003
aF0.0063745900000000003
aF0.0062442299999999999
aF0.0061261099999999997
aF0.0060208199999999996
aF0.0059273499999999996
aF0.00584593
aF0.0057468500000000004
aF0.0056516400000000003
aF0.0055719200000000002
aF0.0055051400000000004
aF0.0054465299999999998
aF0.0053899899999999999
aF0.0053389600000000002
aF0.0052743299999999998
aF0.00519149
aF0.0051510899999999997
aF0.0051178400000000002
aF0.0050942799999999996
aF0.0050894099999999999
aF0.0051040800000000004
aF0.0051191800000000001
aF0.0050431
aF0.0050732599999999996
aF0.0051302800000000001
aF0.0052034999999999998
aF0.0052851499999999997
aF0.0053693899999999999
aF0.0054597300000000003
aF0.0054481900000000003
aF0.0055112599999999996
aF0.0056142600000000003
aF0.0057343899999999998
aF0.0058619500000000003
aF0.0059917299999999998
aF0.0061236900000000002
aF0.0061769800000000003
aF0.0062313400000000001
aF0.0063407300000000002
aF0.0064575800000000001
aF0.0065831400000000003
aF0.0067168799999999997
aF0.0068606400000000003
aF0.0069459700000000001
aF0.0069817400000000002
aF0.0070533699999999998
aF0.0071459899999999996
aF0.00725254
aF0.0073637800000000003
aF0.0074846299999999999
aF0.0075596700000000001
aF0.0075319999999999996
aF0.0074993600000000001
aF0.0075261700000000004
aF0.0075701500000000003
aF0.0076361099999999998
aF0.00772516
aF0.00782155
aF0.0078714400000000004
aF0.0079041100000000006
aF0.0079502500000000007
aF0.0080169200000000003
aF0.0081100200000000008
aF0.0082222200000000006
aF0.0083500299999999996
aF0.0084265699999999995
aF0.0084564500000000008
aF0.0085333200000000005
aF0.0086367700000000002
aF0.0087558700000000007
aF0.0088788099999999991
aF0.0090168799999999997
aF0.0091338800000000005
aF0.0091931600000000006
aF0.0092521099999999992
aF0.00933376
aF0.0094183300000000008
aF0.0095062800000000006
aF0.0095893000000000003
aF0.0096590500000000006
aF0.0096739100000000008
aF0.0096766100000000004
aF0.0096917099999999992
aF0.0097203299999999992
aF0.0097592000000000009
aF0.0098108599999999994
aF0.0098654199999999997
aF0.0098822200000000006
aF0.00986479
aF0.0098663499999999994
aF0.0098882299999999996
aF0.0099387199999999998
aF0.010008
aF0.010093700000000001
aF0.0101435
aF0.010130200000000001
aF0.010137699999999999
aF0.0101694
aF0.010228900000000001
aF0.010312399999999999
aF0.0104145
aF0.010496
aF0.010469600000000001
aF0.0104606
aF0.0104755
aF0.0105247
aF0.0105986
aF0.010691300000000001
aF0.0107714
aF0.0107305
aF0.010697999999999999
aF0.0106908
aF0.010718399999999999
aF0.0107694
aF0.0108395
aF0.0108945
aF0.0108439
aF0.0107876
aF0.0107548
aF0.0107504
aF0.0107688
aF0.0108065
aF0.010840799999999999
aF0.0108133
aF0.010748799999999999
aF0.010714400000000001
aF0.0107178
aF0.0107508
aF0.0108126
aF0.0108784
aF0.010902999999999999
aF0.0108819
aF0.010875599999999999
aF0.0108868
aF0.0109102
aF0.0109573
aF0.0110212
aF0.0110148
aF0.010915899999999999
aF0.010826000000000001
aF0.0107601
aF0.0107145
aF0.010701
aF0.010711500000000001
aF0.0106921
aF0.0105865
aF0.0104954
aF0.0104279
aF0.0103956
aF0.010386100000000001
aF0.010398900000000001
aF0.010389799999999999
aF0.010304600000000001
aF0.0102273
aF0.0101852
aF0.0101672
aF0.0101657
aF0.010178899999999999
aF0.010169900000000001
aF0.010109399999999999
aF0.0100407
aF0.0099878699999999994
aF0.0099736100000000008
aF0.0099744499999999993
aF0.0099889999999999996
aF0.0099851799999999998
aF0.0099271700000000008
aF0.0098484000000000002
aF0.0097841200000000003
aF0.00976343
aF0.0097493600000000003
aF0.0097432100000000004
aF0.0097349700000000008
aF0.0096761499999999997
aF0.0095804299999999992
aF0.0095004200000000007
aF0.0094604900000000002
aF0.0094337799999999992
aF0.0094109899999999993
aF0.0093910999999999994
aF0.0093254199999999992
aF0.0092153500000000006
aF0.0091282299999999993
aF0.0090768800000000007
aF0.0090421500000000005
aF0.0090151999999999993
aF0.0089930600000000006
aF0.0089314200000000007
aF0.0088391500000000005
aF0.0087644300000000001
aF0.0087167700000000004
aF0.0086946799999999998
aF0.0086861999999999998
aF0.0086827399999999996
aF0.0086483700000000007
aF0.0085945499999999994
aF0.0085507799999999991
aF0.0085199400000000002
aF0.0085216500000000004
aF0.0085412400000000003
aF0.0085746499999999996
aF0.0085954199999999994
aF0.0085734499999999998
aF0.0085363000000000001
aF0.0085032100000000006
aF0.0084866200000000003
aF0.0084929700000000007
aF0.0085119400000000008
aF0.0085332499999999992
aF0.0085177599999999992
aF0.0084769200000000006
aF0.0084493899999999993
aF0.0084434000000000002
aF0.0084601399999999997
aF0.0084852399999999998
aF0.0085154099999999993
aF0.0085167899999999998
aF0.0084921300000000005
aF0.0084752500000000001
aF0.00846709
aF0.0084615000000000003
aF0.0084623100000000007
aF0.0084781600000000002
aF0.0084694699999999998
aF0.0084196800000000006
aF0.0083792599999999995
aF0.0083364000000000008
aF0.0082882700000000004
aF0.0082519299999999993
aF0.0082243100000000003
aF0.0081836400000000007
aF0.00810256
aF0.0080332200000000006
aF0.0079692099999999991
aF0.0079029600000000005
aF0.0078467499999999996
aF0.0077990899999999998
aF0.0077384899999999998
aF0.0076574
aF0.00757911
aF0.00750288
aF0.0074286300000000003
aF0.0073594400000000001
aF0.0073049200000000003
aF0.0072467299999999998
aF0.0071699299999999997
aF0.00709013
aF0.0070154299999999996
aF0.0069418199999999996
aF0.0068753099999999999
aF0.0068208599999999998
aF0.0067698999999999997
aF0.0066981599999999999
aF0.00661357
aF0.0065337800000000003
aF0.0064548100000000001
aF0.00637989
aF0.0063254799999999996
aF0.00628789
aF0.0062437300000000003
aF0.0061693599999999996
aF0.0060951099999999999
aF0.00602792
aF0.0059695700000000004
aF0.0059273599999999996
aF0.0058942100000000004
aF0.0058744499999999998
aF0.0058294200000000001
aF0.0057935
aF0.0057621
aF0.0057390999999999996
aF0.0057287199999999996
aF0.0057259099999999999
aF0.0057063399999999998
aF0.00564891
aF0.0055720400000000003
aF0.0054961000000000003
aF0.0054289100000000003
aF0.0053738800000000001
aF0.0053288600000000004
aF0.0052644800000000002
aF0.0051578600000000002
aF0.0050371900000000004
aF0.0049300200000000002
aF0.0048352500000000001
aF0.0047574100000000001
aF0.00469652
aF0.0046273499999999997
aF0.0045231899999999998
aF0.0044069299999999999
aF0.0043107299999999996
aF0.0042287100000000001
aF0.0041661500000000004
aF0.00412459
aF0.0040772600000000001
aF0.0039829699999999997
aF0.0038799500000000001
aF0.0037986399999999998
aF0.0037318999999999998
aF0.0036841299999999999
aF0.0036590699999999999
aF0.0036449500000000001
aF0.0035736299999999999
aF0.00349073
aF0.0034401000000000002
aF0.0034059200000000002
aF0.0033902099999999998
aF0.0033963000000000001
aF0.00342232
aF0.0034076499999999999
aF0.0033538499999999998
aF0.0033302499999999999
aF0.0033268400000000002
aF0.0033329399999999999
aF0.0033584399999999999
aF0.0033980099999999999
aF0.00340624
aF0.00336361
aF0.0033337200000000001
aF0.0033267000000000001
aF0.0033261499999999999
aF0.0033404300000000001
aF0.0033644299999999999
aF0.0033600000000000001
aF0.0033062199999999999
aF0.0032581799999999998
aF0.00323215
aF0.0032149000000000001
aF0.0032190399999999998
aF0.0032305699999999999
aF0.0032319100000000002
aF0.00318352
aF0.0031406400000000001
aF0.0031156600000000001
aF0.0030966499999999998
aF0.0030861999999999999
aF0.0030985000000000001
aF0.0031036200000000001
aF0.0030366899999999999
aF0.0029783700000000001
aF0.00295226
aF0.0029432099999999999
aF0.0029413099999999999
aF0.0029509800000000002
aF0.0029845399999999999
asg34
(lp51
F0.108876
aF0.052153499999999998
aF0.032331899999999997
aF0.023855999999999999
aF0.019336900000000001
aF0.016662900000000001
aF0.0147536
aF0.013310799999999999
aF0.012270100000000001
aF0.011495399999999999
aF0.010899600000000001
aF0.010458200000000001
aF0.0101379
aF0.0099240999999999999
aF0.0096387199999999999
aF0.0093462900000000002
aF0.0091452900000000004
aF0.0090229999999999998
aF0.0090110499999999996
aF0.0090533999999999996
aF0.0090589799999999995
aF0.0089393500000000004
aF0.0087867499999999994
aF0.0087162799999999999
aF0.0087156100000000004
aF0.0087566599999999994
aF0.0088091599999999999
aF0.0088216000000000006
aF0.0087230399999999996
aF0.0085941000000000004
aF0.0085190500000000002
aF0.0084679100000000004
aF0.0084296100000000006
aF0.00840312
aF0.0083758500000000007
aF0.0082809500000000005
aF0.0081147900000000002
aF0.0079869099999999998
aF0.0078805699999999999
aF0.00780096
aF0.0077268700000000003
aF0.0076604899999999998
aF0.0075635800000000003
aF0.0073955899999999996
aF0.0072536199999999997
aF0.0071410800000000002
aF0.0070445300000000002
aF0.0069599700000000002
aF0.0068876900000000001
aF0.0067954599999999997
aF0.0066569799999999998
aF0.00653296
aF0.0064351199999999999
aF0.0063553500000000001
aF0.0062873499999999997
aF0.0062386799999999999
aF0.0061844700000000001
aF0.0060870899999999999
aF0.00598366
aF0.0059053500000000002
aF0.0058571999999999999
aF0.0058288100000000002
aF0.0058136000000000004
aF0.0057897299999999999
aF0.0057376500000000004
aF0.00567783
aF0.00564819
aF0.0056340100000000001
aF0.0056374399999999996
aF0.0056533099999999999
aF0.0056759899999999997
aF0.0056705699999999998
aF0.0056432599999999998
aF0.0056307400000000004
aF0.0056231700000000003
aF0.0056236899999999998
aF0.0056332300000000004
aF0.0056511299999999999
aF0.0056373899999999999
aF0.0056205300000000003
aF0.0056256700000000001
aF0.0056463499999999996
aF0.0056853800000000003
aF0.0057373399999999996
aF0.00579832
aF0.0058420800000000004
aF0.0058747399999999998
aF0.0059402300000000003
aF0.0060331600000000001
aF0.0061432400000000003
aF0.0062604699999999998
aF0.0063997400000000001
aF0.0065332899999999998
aF0.0066432599999999998
aF0.0067688799999999997
aF0.0069199200000000004
aF0.0070821699999999996
aF0.0072501500000000003
aF0.0074279200000000002
aF0.0076082900000000002
aF0.0077708400000000002
aF0.0079256799999999992
aF0.0081049
aF0.0082842499999999999
aF0.0084597200000000004
aF0.0086507700000000003
aF0.0088446800000000006
aF0.0090234300000000007
aF0.0091829500000000005
aF0.0093584400000000009
aF0.0095388799999999996
aF0.0097092900000000006
aF0.00990072
aF0.0101069
aF0.0102839
aF0.0104414
aF0.010610899999999999
aF0.0107823
aF0.010951199999999999
aF0.0111386
aF0.011344999999999999
aF0.011475000000000001
aF0.0116221
aF0.011784599999999999
aF0.011950300000000001
aF0.0121113
aF0.0122811
aF0.012478400000000001
aF0.0125693
aF0.0126476
aF0.0127768
aF0.0129166
aF0.0130472
aF0.0131863
aF0.013365999999999999
aF0.013464200000000001
aF0.013476200000000001
aF0.0134985
aF0.0135528
aF0.013620999999999999
aF0.013726199999999999
aF0.0138786
aF0.013974500000000001
aF0.013978300000000001
aF0.0139851
aF0.0140146
aF0.0140876
aF0.014173
aF0.014303400000000001
aF0.014446799999999999
aF0.014578900000000001
aF0.014685800000000001
aF0.014811899999999999
aF0.014952399999999999
aF0.0151133
aF0.015321
aF0.0155529
aF0.0157377
aF0.015881599999999999
aF0.016061200000000001
aF0.016248700000000001
aF0.016440099999999999
aF0.016660399999999999
aF0.0169219
aF0.0171042
aF0.0172192
aF0.017368399999999999
aF0.017536800000000002
aF0.0177264
aF0.017940899999999999
aF0.018179899999999999
aF0.018359400000000001
aF0.018468200000000001
aF0.018562100000000002
aF0.018672399999999999
aF0.018804999999999999
aF0.0189637
aF0.0191471
aF0.019292799999999999
aF0.019349999999999999
aF0.0193645
aF0.019382699999999999
aF0.019426100000000002
aF0.019509200000000001
aF0.019603499999999999
aF0.019681199999999999
aF0.019676800000000001
aF0.019624099999999998
aF0.019581299999999999
aF0.019550399999999999
aF0.0195462
aF0.0195818
aF0.0196227
aF0.019574899999999999
aF0.019464100000000002
aF0.0193727
aF0.019288300000000001
aF0.0192225
aF0.0191687
aF0.019142300000000001
aF0.0190729
aF0.018910199999999999
aF0.018760700000000002
aF0.018644500000000001
aF0.018535099999999999
aF0.018424900000000001
aF0.018315399999999999
aF0.0182271
aF0.01804
aF0.017819000000000002
aF0.017610500000000001
aF0.017415799999999999
aF0.0172339
aF0.017073000000000001
aF0.016963800000000001
aF0.016823600000000001
aF0.0166375
aF0.0164563
aF0.016269700000000002
aF0.0161041
aF0.0159737
aF0.0158411
aF0.015653
aF0.0154065
aF0.015190199999999999
aF0.015020500000000001
aF0.0148974
aF0.0148056
aF0.014740400000000001
aF0.0146286
aF0.0144598
aF0.014344600000000001
aF0.014274999999999999
aF0.014223100000000001
aF0.0141948
aF0.014187699999999999
aF0.0141431
aF0.014097
aF0.0140892
aF0.014081099999999999
aF0.014073199999999999
aF0.0140716
aF0.014091299999999999
aF0.01409
aF0.0140783
aF0.014075499999999999
aF0.0140462
aF0.014008100000000001
aF0.013981
aF0.013968400000000001
aF0.013934500000000001
aF0.013862599999999999
aF0.0137862
aF0.013710200000000001
aF0.0136387
aF0.0135762
aF0.0135205
aF0.013433499999999999
aF0.0133058
aF0.0131772
aF0.013044200000000001
aF0.012913000000000001
aF0.012791500000000001
aF0.012679899999999999
aF0.0125539
aF0.012394499999999999
aF0.012213099999999999
aF0.012050099999999999
aF0.0118897
aF0.0117359
aF0.011589
aF0.0114547
aF0.0112894
aF0.0111085
aF0.0109488
aF0.010810200000000001
aF0.0106838
aF0.0105714
aF0.010468099999999999
aF0.0103371
aF0.0101998
aF0.010097200000000001
aF0.0100228
aF0.0099648800000000006
aF0.0099169199999999992
aF0.0098884699999999999
aF0.0098357400000000008
aF0.0097615099999999993
aF0.00971786
aF0.0097026500000000002
aF0.0096944500000000003
aF0.0096887799999999993
aF0.00968486
aF0.00962118
aF0.0095583600000000001
aF0.0095530700000000003
aF0.0095727099999999999
aF0.0095975899999999996
aF0.0096169800000000007
aF0.0096371300000000007
aF0.0096018100000000006
aF0.0095337900000000003
aF0.0095335699999999999
aF0.0095573700000000008
aF0.0095949399999999997
aF0.0096201499999999992
aF0.0096382199999999994
aF0.00964251
aF0.0095641500000000004
aF0.0095375800000000004
aF0.0095329500000000001
aF0.0095306499999999999
aF0.0095256500000000001
aF0.0095273400000000005
aF0.0095222699999999993
aF0.0093911199999999993
aF0.0092873799999999996
aF0.0092030700000000007
aF0.0091224199999999991
aF0.0090446799999999994
aF0.00899784
aF0.0089601300000000002
aF0.0087902999999999992
aF0.0086077800000000006
aF0.0084412900000000006
aF0.0082979400000000002
aF0.0081653000000000003
aF0.0080609099999999993
aF0.0079812100000000007
aF0.0078089400000000003
aF0.00759138
aF0.00739685
aF0.0072371299999999996
aF0.0070897800000000004
aF0.0069637700000000002
aF0.0068756399999999997
aF0.0067398700000000002
aF0.0065463400000000003
aF0.0063698299999999999
aF0.0062248599999999996
aF0.0060949699999999999
aF0.0059864899999999997
aF0.0059261000000000001
aF0.0058582299999999999
aF0.0057450499999999998
aF0.0056236599999999999
aF0.0055276099999999996
aF0.0054467300000000003
aF0.0053848200000000002
aF0.0053632599999999999
aF0.0053562200000000001
aF0.0053160200000000003
aF0.0052662500000000001
aF0.0052337800000000004
aF0.0052130400000000004
aF0.0052076500000000003
aF0.00521792
aF0.0052463299999999996
asg35
(lp52
F0.16638700000000001
aF0.074198799999999995
aF0.040990800000000001
aF0.026701800000000001
aF0.020256300000000001
aF0.017777500000000002
aF0.016163799999999999
aF0.014942499999999999
aF0.014182
aF0.0136317
aF0.0131558
aF0.0127441
aF0.012388
aF0.011862899999999999
aF0.0114106
aF0.0110714
aF0.010804100000000001
aF0.0105562
aF0.010309199999999999
aF0.0100441
aF0.0097153099999999996
aF0.0093402899999999994
aF0.0090870599999999992
aF0.0089184299999999998
aF0.0087998799999999995
aF0.0086897499999999996
aF0.0085645400000000007
aF0.0083955100000000001
aF0.0082435100000000008
aF0.0081670600000000003
aF0.0081006800000000007
aF0.0080336299999999999
aF0.0079579500000000001
aF0.0078952599999999994
aF0.0078305200000000005
aF0.0076845500000000001
aF0.0076442599999999999
aF0.0076425399999999998
aF0.0076195799999999999
aF0.0075824799999999999
aF0.0075544699999999998
aF0.0075505099999999999
aF0.0074886800000000002
aF0.0074115300000000004
aF0.0074762400000000003
aF0.0075259899999999998
aF0.0075518499999999997
aF0.00757852
aF0.0076193099999999998
aF0.0075645599999999997
aF0.0074729899999999997
aF0.0075118299999999997
aF0.0075814100000000002
aF0.0076577599999999996
aF0.0077302600000000001
aF0.0078138900000000004
aF0.0078002499999999999
aF0.0077064100000000003
aF0.0077148800000000003
aF0.0077848300000000004
aF0.0078703100000000002
aF0.0079459000000000005
aF0.0080246499999999995
aF0.0080275899999999994
aF0.0079030200000000002
aF0.0078304199999999994
aF0.0078545000000000004
aF0.0078848700000000004
aF0.0079124799999999995
aF0.0079342200000000005
aF0.0079284000000000004
aF0.0077785500000000004
aF0.0076217400000000001
aF0.0075878999999999999
aF0.0075842499999999998
aF0.0075850099999999997
aF0.0075961700000000002
aF0.0076124399999999998
aF0.00747498
aF0.0073170600000000002
aF0.00727284
aF0.0072923600000000003
aF0.0073208500000000003
aF0.0073369400000000001
aF0.0073530399999999999
aF0.0072469800000000001
aF0.0071059699999999996
aF0.0070348800000000003
aF0.0070527799999999998
aF0.0070798600000000003
aF0.0071028300000000001
aF0.0071336899999999998
aF0.00707319
aF0.00696381
aF0.0068947599999999998
aF0.0069000600000000004
aF0.0069413399999999998
aF0.0069904299999999997
aF0.0070365499999999999
aF0.0070152000000000001
aF0.0069268699999999999
aF0.0068615100000000004
aF0.0068640200000000002
aF0.0069347799999999998
aF0.0070071700000000001
aF0.00710167
aF0.0071433299999999998
aF0.00708312
aF0.0070277500000000001
aF0.0070464300000000002
aF0.0071426900000000002
aF0.0072337699999999996
aF0.0073279900000000004
aF0.0074058099999999997
aF0.0073688599999999996
aF0.0073475800000000003
aF0.0073905400000000001
aF0.0075015999999999998
aF0.00760263
aF0.0077023500000000002
aF0.0078110899999999997
aF0.0077852599999999996
aF0.0077715800000000002
aF0.0078227599999999998
aF0.00792467
aF0.0080238099999999993
aF0.0081176000000000009
aF0.0082312099999999992
aF0.0082273799999999994
aF0.0081909200000000008
aF0.0082013599999999996
aF0.0082714399999999997
aF0.0083557400000000004
aF0.0084307500000000007
aF0.0085287000000000002
aF0.0085188
aF0.0084274999999999992
aF0.0083636100000000005
aF0.0083404800000000008
aF0.0083659400000000005
aF0.0083949999999999997
aF0.0084464099999999997
aF0.0084211400000000006
aF0.0082797600000000006
aF0.0081276500000000002
aF0.0081237500000000008
aF0.0081848000000000008
aF0.0082466299999999996
aF0.0083335900000000001
aF0.0083755099999999992
aF0.00822815
aF0.0081356899999999992
aF0.0081905199999999997
aF0.0082724500000000006
aF0.0083619699999999998
aF0.0084466200000000002
aF0.0085429900000000003
aF0.0084331400000000004
aF0.00834441
aF0.0083624800000000003
aF0.0084437100000000001
aF0.0085366999999999995
aF0.0086194500000000007
aF0.0087012300000000008
aF0.0085749899999999993
aF0.0084723000000000003
aF0.0084591400000000004
aF0.00850653
aF0.0085671500000000008
aF0.0086141299999999994
aF0.0086668600000000002
aF0.0085904199999999997
aF0.0084906300000000007
aF0.0084305000000000005
aF0.0084572299999999996
aF0.0085098199999999995
aF0.0085543300000000006
aF0.0085945299999999995
aF0.0085536199999999996
aF0.0084699500000000004
aF0.0084235200000000003
aF0.0084612799999999998
aF0.0085192900000000005
aF0.0085833100000000002
aF0.0086420999999999998
aF0.0086317700000000004
aF0.0085445899999999995
aF0.0085107800000000008
aF0.0085493800000000005
aF0.0086220199999999993
aF0.0087012700000000005
aF0.0087629700000000001
aF0.00879951
aF0.0087021400000000006
aF0.0086670600000000007
aF0.0087105299999999993
aF0.0087714899999999998
aF0.0088446199999999992
aF0.0088894200000000003
aF0.0089374599999999995
aF0.0088241499999999994
aF0.0087706899999999994
aF0.0087820699999999995
aF0.0088177900000000007
aF0.0088712600000000006
aF0.0089217600000000008
aF0.0089659800000000001
aF0.0088403700000000002
aF0.00873291
aF0.0086781099999999993
aF0.0086887700000000002
aF0.0087061900000000008
aF0.0087551599999999997
aF0.0088036
aF0.0087213199999999994
aF0.0086001299999999992
aF0.0085478900000000007
aF0.0086128400000000001
aF0.0087004300000000003
aF0.0087894199999999992
aF0.0088763999999999996
aF0.0089009499999999995
aF0.0088207400000000005
aF0.0087987499999999993
aF0.0088695400000000004
aF0.0089707499999999996
aF0.0090670500000000001
aF0.0091730300000000004
aF0.0092262300000000002
aF0.0091161100000000002
aF0.0090348300000000006
aF0.0090851999999999999
aF0.00915587
aF0.0092389900000000007
aF0.0093146199999999992
aF0.0093773899999999993
aF0.0092065700000000007
aF0.00906532
aF0.00907378
aF0.0091327700000000001
aF0.0091761800000000008
aF0.0092051400000000005
aF0.0092365299999999997
aF0.00906211
aF0.0089197800000000004
aF0.0089047499999999995
aF0.0089293500000000008
aF0.0089581599999999997
aF0.0089523599999999995
aF0.0089602499999999995
aF0.0088273799999999993
aF0.0087044500000000007
aF0.0086878200000000006
aF0.0087117900000000005
aF0.0087363600000000003
aF0.0087574200000000001
aF0.00879922
aF0.0087223500000000002
aF0.0086036099999999994
aF0.0085719899999999998
aF0.0086047099999999998
aF0.0086520799999999995
aF0.0086917499999999998
aF0.0087447800000000006
aF0.0087234300000000008
aF0.0086160500000000001
aF0.0085774200000000005
aF0.0086396200000000006
aF0.0087180399999999998
aF0.0087886700000000002
aF0.0088462000000000002
aF0.0088843900000000007
aF0.0087574300000000001
aF0.0087226600000000001
aF0.0087970199999999991
aF0.0088813699999999995
aF0.0089737299999999992
aF0.0090427200000000006
aF0.0091220199999999998
aF0.0089804199999999994
aF0.0089199299999999995
aF0.0089597199999999991
aF0.0090097200000000006
aF0.0090484899999999993
aF0.0091045299999999996
aF0.0091718400000000005
aF0.0090504699999999997
aF0.0089305200000000008
aF0.0089260599999999996
aF0.0089730799999999996
aF0.0090130499999999999
aF0.00906181
aF0.0091497000000000002
aF0.0091129799999999997
aF0.0090212999999999995
aF0.0089945200000000006
aF0.0090561400000000007
aF0.0091241099999999995
aF0.0091848499999999996
aF0.0092652800000000007
aF0.0092638400000000006
aF0.0091277200000000006
aF0.0090317000000000001
aF0.0090602400000000007
aF0.00912199
aF0.0091766499999999997
aF0.0092336399999999996
aF0.0092282200000000005
aF0.0090495599999999999
aF0.0088961600000000002
aF0.00887837
aF0.0088971199999999997
aF0.0089097299999999994
aF0.0089214299999999993
aF0.0089535099999999996
aF0.0087826699999999994
aF0.0086291800000000002
aF0.0085991399999999999
aF0.0086241600000000005
aF0.0086451900000000005
aF0.0086808300000000005
aF0.0087447400000000008
aF0.0086130600000000005
aF0.0084723799999999998
aF0.00842737
aF0.0084553900000000001
aF0.0084948699999999999
aF0.0085520500000000003
aF0.0086405400000000004
aF0.0085651600000000005
aF0.0084581900000000008
aF0.0084333099999999994
aF0.0085053400000000001
aF0.0085752699999999994
aF0.0086607799999999999
aF0.0087576200000000007
aF0.0087349100000000002
aF0.0086310599999999994
aF0.0086139100000000007
aF0.0087080300000000003
aF0.0087730599999999992
aF0.0088396900000000007
aF0.0089442099999999993
aF0.0089616000000000001
aF0.0088190400000000002
aF0.0087695499999999992
aF0.0088564300000000002
aF0.0089139100000000006
aF0.0089712200000000002
aF0.0090615699999999997
aF0.0091147999999999993
aF0.0089445400000000008
aF0.0088282099999999995
aF0.0088617599999999998
aF0.0089026999999999995
aF0.0089301199999999997
aF0.0089578399999999999
aF0.0090077400000000002
asg36
(lp53
F10
aF10
aF10
aF10
aF10
aF10
aF10
aF10
aF10
aF10
aF9
aF9
aF9
aF9
aF9
aF9
aF8
aF8
aF8
aF8
aF8
aF8
aF8
aF8
aF8
aF8
aF8
aF8
aF8
aF8
aF8
aF8
aF8
aF8
aF8
aF8
aF8
aF8
aF8
aF8
aF8
aF8
aF8
aF8
aF8
aF8
aF8
aF8
aF8
aF8
aF8
aF8
aF8
aF8
aF8
aF8
aF8
aF8
aF8
aF8
aF8
aF8
aF8
aF8
aF8
aF8
aF7
aF8
aF8
aF7
aF7
aF7
aF7
aF7
aF7
aF7
aF7
aF7
aF7
aF7
aF7
aF7
aF7
aF7
aF7
aF7
aF7
aF7
aF7
aF7
aF7
aF7
aF7
aF7
aF7
aF7
aF7
aF7
aF7
aF7
aF7
aF7
aF7
aF7
aF7
aF7
aF7
aF7
aF7
aF7
aF7
aF7
aF7
aF7
aF7
aF7
aF7
aF7
aF7
aF7
aF7
aF7
aF7
aF7
aF7
aF7
aF7
aF7
aF7
aF7
aF7
aF7
aF7
aF7
aF7
aF7
aF7
aF7
aF7
aF7
aF7
aF7
aF7
aF7
aF7
aF7
aF7
aF7
aF8
aF7
aF7
aF7
aF7
aF7
aF7
aF7
aF7
aF7
aF7
aF7
aF7
aF7
aF7
aF7
aF7
aF7
aF7
aF7
aF7
aF7
aF7
aF7
aF7
aF7
aF7
aF7
aF7
aF7
aF7
aF7
aF7
aF7
aF7
aF7
aF7
aF7
aF7
aF7
aF7
aF7
aF7
aF7
aF7
aF7
aF7
aF7
aF7
aF7
aF7
aF7
aF7
aF7
aF7
aF7
aF7
aF7
aF7
aF7
aF7
aF7
aF7
aF7
aF7
aF8
aF7
aF8
aF7
aF7
aF7
aF7
aF7
aF7
aF7
aF7
aF7
aF7
aF7
aF7
aF7
aF7
aF7
aF7
aF7
aF7
aF7
aF7
aF7
aF7
aF7
aF7
aF7
aF7
aF7
aF7
aF7
aF7
aF7
aF7
aF7
aF7
aF7
aF7
aF7
aF7
aF7
aF7
aF7
aF7
aF7
aF7
aF7
aF7
aF7
aF7
aF7
aF7
aF7
aF7
aF7
aF7
aF7
aF7
aF7
aF7
aF7
aF7
aF7
aF7
aF8
aF7
aF7
aF7
aF7
aF7
aF7
aF7
aF7
aF7
aF7
aF7
aF7
aF7
aF7
aF7
aF7
aF7
aF7
aF7
aF7
aF7
aF7
aF7
aF7
aF7
aF7
aF7
aF7
aF7
aF7
aF7
aF7
aF7
aF7
aF7
aF7
aF7
aF7
aF7
aF7
aF7
aF7
aF8
aF7
aF7
aF7
aF7
aF7
aF7
aF7
aF7
aF7
aF7
aF7
aF7
aF7
aF7
aF7
aF7
aF7
aF7
aF7
aF7
aF8
aF8
aF7
aF7
aF7
aF7
aF8
aF8
aF8
aF8
aF8
aF7
aF8
aF8
aF8
aF8
asS'k'
(lp54
F0.120272
aF0.073068400000000006
aF0.053206700000000003
aF0.042199800000000003
aF0.035231100000000001
aF0.030345199999999999
aF0.0267429
aF0.023963700000000001
aF0.0217129
aF0.019863200000000001
aF0.018304000000000001
aF0.016965399999999999
aF0.015799199999999999
aF0.014779199999999999
aF0.0138739
aF0.0130606
aF0.0123237
aF0.011651699999999999
aF0.0110355
aF0.010472800000000001
aF0.0099497400000000003
aF0.0094609700000000008
aF0.0090107299999999998
aF0.0085937199999999991
aF0.0082058099999999991
aF0.0078391899999999994
aF0.00749368
aF0.0071647999999999998
aF0.0068450200000000003
aF0.0065451099999999998
aF0.0062713400000000002
aF0.0060143100000000001
aF0.0057677600000000002
aF0.0055315199999999998
aF0.0053031299999999996
aF0.0050722500000000004
aF0.0048542400000000001
aF0.0046572599999999999
aF0.0044730000000000004
aF0.0042962299999999998
aF0.0041259399999999998
aF0.0039632399999999998
aF0.00379824
aF0.0036394499999999998
aF0.0034951600000000002
aF0.0033612899999999999
aF0.0032331199999999999
aF0.0031100300000000002
aF0.0029933
aF0.0028745099999999998
aF0.0027580899999999999
aF0.0026525699999999999
aF0.00255573
aF0.00246328
aF0.0023750199999999998
aF0.0022909900000000001
aF0.0022052999999999999
aF0.0021189999999999998
aF0.0020412899999999999
aF0.0019712699999999998
aF0.0019049900000000001
aF0.0018417399999999999
aF0.0017806300000000001
aF0.00171944
aF0.00165602
aF0.00159829
aF0.00154747
aF0.0014999099999999999
aF0.00145302
aF0.00140785
aF0.00136286
aF0.00131489
aF0.00127075
aF0.0012315
aF0.00119454
aF0.0011578999999999999
aF0.00112374
aF0.00109084
aF0.0010547899999999999
aF0.00102137
aF0.000990379
aF0.000961217
aF0.00093288500000000005
aF0.00090742199999999996
aF0.00088374999999999999
aF0.00085819499999999996
aF0.00083286199999999997
aF0.00080922600000000002
aF0.00078609999999999997
aF0.00076511500000000002
aF0.00074647699999999995
aF0.00072908399999999996
aF0.00070988400000000004
aF0.00069009900000000001
aF0.00067253300000000001
aF0.000656495
aF0.00064108500000000001
aF0.00062693500000000001
aF0.00061309000000000005
aF0.00059842000000000001
aF0.00058403299999999997
aF0.00057267099999999997
aF0.00056164500000000005
aF0.00055128800000000004
aF0.00054198600000000005
aF0.00053356900000000001
aF0.00052447599999999996
aF0.00051452699999999997
aF0.00050766799999999996
aF0.00050196500000000005
aF0.00049697599999999999
aF0.00049246999999999995
aF0.000488445
aF0.000483714
aF0.00047646599999999999
aF0.00047247400000000002
aF0.00046995899999999999
aF0.00046828000000000001
aF0.000466241
aF0.00046329500000000002
aF0.00046088200000000002
aF0.00045530400000000002
aF0.00045431600000000002
aF0.00045439299999999998
aF0.000453805
aF0.00045286099999999999
aF0.000451571
aF0.00045007499999999998
aF0.00044621999999999999
aF0.00044633999999999999
aF0.00044718500000000001
aF0.00044617499999999999
aF0.00044465800000000001
aF0.00044278299999999998
aF0.00044178300000000001
aF0.00043877599999999999
aF0.00043684099999999999
aF0.00043497499999999999
aF0.00043201600000000002
aF0.00042921099999999998
aF0.00042704
aF0.00042476800000000001
aF0.00042242499999999998
aF0.00042095400000000002
aF0.00041869500000000002
aF0.000415988
aF0.00041409800000000001
aF0.000412469
aF0.000410269
aF0.00040932700000000002
aF0.00040978899999999998
aF0.000409935
aF0.00040824699999999998
aF0.00040587899999999999
aF0.000403748
aF0.00040205699999999999
aF0.000400942
aF0.00040112399999999999
aF0.00040128599999999999
aF0.00040038999999999998
aF0.00039893699999999998
aF0.00039732800000000001
aF0.00039652300000000003
aF0.00039610600000000002
aF0.00039539700000000002
aF0.00039681999999999999
aF0.00039698000000000001
aF0.00039720499999999998
aF0.00039762400000000001
aF0.00039740700000000001
aF0.00039646800000000003
aF0.00039603899999999999
aF0.00039820399999999998
aF0.00039992800000000002
aF0.00040015199999999997
aF0.00040025299999999999
aF0.00040003199999999998
aF0.000399703
aF0.00039956399999999998
aF0.00040159700000000001
aF0.00040378400000000002
aF0.00040427600000000002
aF0.00040398799999999998
aF0.00040366700000000002
aF0.00040432400000000001
aF0.00040436399999999999
aF0.00040508200000000002
aF0.00040706800000000001
aF0.00040739699999999999
aF0.000407639
aF0.000408131
aF0.00040871100000000002
aF0.00040837499999999999
aF0.00040706899999999997
aF0.00040876299999999998
aF0.00040957999999999999
aF0.000409181
aF0.00040872
aF0.00040797199999999999
aF0.00040817300000000001
aF0.000406561
aF0.00040744199999999999
aF0.00040751399999999999
aF0.00040691700000000002
aF0.00040623699999999999
aF0.00040533300000000002
aF0.00040523099999999998
aF0.00040346499999999999
aF0.00040274000000000001
aF0.00040224299999999999
aF0.00040096199999999999
aF0.000399045
aF0.00039721500000000002
aF0.00039564899999999998
aF0.00039519400000000002
aF0.00039445300000000001
aF0.000393843
aF0.00039285399999999999
aF0.00039121400000000003
aF0.000389663
aF0.00038901300000000001
aF0.00039032800000000001
aF0.00039160300000000002
aF0.000391894
aF0.00039110399999999997
aF0.00039093500000000002
aF0.00039050400000000001
aF0.00038979800000000001
aF0.00039077099999999999
aF0.00039210699999999999
aF0.00039286600000000002
aF0.00039265699999999998
aF0.00039227000000000001
aF0.00039162000000000002
aF0.00039210900000000002
aF0.00039303500000000002
aF0.00039304999999999999
aF0.00039337500000000001
aF0.000392218
aF0.00039168800000000001
aF0.00039107699999999998
aF0.00039032900000000002
aF0.00039140099999999999
aF0.000390648
aF0.000390348
aF0.00038998599999999999
aF0.000389532
aF0.00038955899999999999
aF0.00038869300000000001
aF0.00038940699999999998
aF0.00038915899999999998
aF0.000389198
aF0.00038921099999999998
aF0.00038877699999999998
aF0.00038817499999999999
aF0.00038750999999999998
aF0.00038723799999999998
aF0.00038654299999999999
aF0.000386998
aF0.00038724899999999999
aF0.00038596399999999998
aF0.00038497
aF0.000384158
aF0.00038423199999999998
aF0.00038515199999999999
aF0.00038547700000000001
aF0.000385249
aF0.00038375699999999998
aF0.00038224500000000002
aF0.00038146000000000002
aF0.000381548
aF0.00038207200000000001
aF0.00038227200000000002
aF0.00038079599999999998
aF0.00037967799999999999
aF0.000379014
aF0.00037847
aF0.00037794800000000002
aF0.00037791000000000002
aF0.000377196
aF0.00037622699999999997
aF0.00037448400000000001
aF0.00037253999999999998
aF0.00037097299999999997
aF0.00036969999999999999
aF0.000368124
aF0.00036548100000000002
aF0.00036540500000000002
aF0.00036532099999999999
aF0.00036484400000000002
aF0.00036432199999999999
aF0.00036376799999999999
aF0.00036320299999999999
aF0.00036187900000000001
aF0.00036103399999999999
aF0.00036142699999999999
aF0.00036091900000000002
aF0.00036090200000000002
aF0.00036123399999999999
aF0.00036204299999999999
aF0.00036246100000000001
aF0.00036235299999999999
aF0.00036301299999999998
aF0.000362732
aF0.00036247999999999999
aF0.000362553
aF0.00036244400000000001
aF0.00036252099999999998
aF0.00036230600000000001
aF0.000363159
aF0.000363018
aF0.00036237800000000001
aF0.00036166099999999999
aF0.000361114
aF0.00036183999999999999
aF0.00036235100000000001
aF0.00036327100000000003
aF0.00036346099999999998
aF0.00036319899999999998
aF0.000362901
aF0.000362612
aF0.000363307
aF0.000364481
aF0.00036619199999999999
aF0.00036658200000000001
aF0.00036651099999999997
aF0.00036611599999999999
aF0.00036654199999999997
aF0.00036814600000000002
aF0.00036979500000000002
aF0.000370548
aF0.00037090499999999999
aF0.00037103499999999997
aF0.000370906
aF0.00037236700000000002
aF0.00037445399999999998
aF0.00037591399999999998
aF0.000376855
aF0.00037789200000000001
aF0.00037825599999999999
aF0.00037845000000000001
aF0.00037895499999999999
aF0.00038073399999999998
aF0.00038125600000000001
aF0.00038167700000000003
aF0.00038273799999999998
aF0.000384461
aF0.00038571100000000001
aF0.00038644800000000001
aF0.00038688399999999999
aF0.00038735499999999998
aF0.00038651700000000001
aF0.00038824999999999998
aF0.000390424
aF0.00039230599999999998
aF0.00039294200000000002
aF0.000393147
aF0.00039386899999999998
asg37
(lp55
F858
aF840
aF851
aF854
aF831
aF827
aF830
aF793
aF587
aF591
aF585
aF561
aF599
aF592
aF626
aF558
aF438
aF475
aF591
aF627
aF424
aF547
aF443
aF302
aF567
aF714
aF686
aF510
aF560
aF574
aF297
aF565
aF616
aF608
aF671
aF771
aF691
aF397
aF528
aF645
aF609
aF742
aF791
aF782
aF550
aF532
aF590
aF781
aF812
aF560
aF573
aF625
aF586
aF752
aF725
aF784
aF704
aF762
aF531
aF353
aF553
aF723
aF570
aF347
aF628
aF631
aF541
aF489
aF531
aF578
aF557
aF806
aF806
aF672
aF451
aF534
aF579
aF728
aF805
aF784
aF670
aF467
aF487
aF631
aF773
aF769
aF730
aF549
aF441
aF478
aF567
aF716
aF784
aF754
aF762
aF419
aF427
aF505
aF604
aF584
aF761
aF651
aF278
aF605
aF501
aF579
aF498
aF682
aF651
aF429
aF686
aF519
aF606
aF585
aF771
aF667
aF448
aF640
aF486
aF549
aF515
aF803
aF766
aF603
aF756
aF593
aF551
aF542
aF741
aF639
aF555
aF364
aF451
aF564
aF670
aF662
aF746
aF751
aF501
aF376
aF514
aF593
aF556
aF819
aF588
aF512
aF431
aF494
aF653
aF367
aF585
aF530
aF349
aF397
aF506
aF491
aF575
aF492
aF497
aF311
aF377
aF477
aF565
aF500
aF451
aF513
aF334
aF374
aF490
aF537
aF589
aF392
aF458
aF328
aF425
aF521
aF618
aF643
aF407
aF520
aF307
aF361
aF505
aF572
aF698
aF480
aF539
aF491
aF382
aF396
aF428
aF526
aF519
aF576
aF485
aF271
aF396
aF463
aF495
aF513
aF558
aF608
aF509
aF345
aF451
aF444
aF472
aF652
aF709
aF507
aF298
aF563
aF581
aF654
aF475
aF501
aF419
aF408
aF499
aF540
aF586
aF504
aF441
aF419
aF419
aF457
aF670
aF609
aF450
aF525
aF517
aF463
aF572
aF699
aF649
aF477
aF492
aF479
aF461
aF479
aF581
aF675
aF512
aF464
aF447
aF493
aF471
aF612
aF650
aF645
aF510
aF342
aF456
aF510
aF467
aF591
aF657
aF524
aF487
aF350
aF500
aF426
aF555
aF545
aF503
aF495
aF443
aF420
aF425
aF599
aF614
aF600
aF571
aF572
aF278
aF469
aF474
aF540
aF524
aF544
aF618
aF454
aF481
aF476
aF509
aF575
aF636
aF623
aF424
aF444
aF463
aF633
aF757
aF424
aF573
aF435
aF549
aF539
aF671
aF654
aF559
aF511
aF361
aF513
aF565
aF604
aF730
aF654
aF501
aF473
aF592
aF613
aF741
aF770
aF743
aF543
aF517
aF474
aF437
aF613
aF708
aF755
aF500
aF489
aF507
aF482
aF530
aF777
aF791
aF520
aF639
aF474
aF450
aF461
aF607
aF786
aF370
aF723
aF567
aF473
aF505
aF652
aF630
aF450
aF702
aF572
aF274
aF469
aF493
aF504
aF529
aF660
aF645
aF482
aF371
aF468
aF675
aF593
asg41
(lp56
F1.56003e-08
aF9.6721399999999999e-07
aF6.5971399999999997e-07
aF4.4990799999999998e-07
aF4.21352e-07
aF5.1449399999999995e-07
aF6.2882099999999996e-07
aF7.4541600000000001e-07
aF8.7602699999999996e-07
aF2.5427800000000002e-09
aF2.7077899999999998e-09
aF3.0069300000000001e-09
aF3.6619699999999999e-09
aF3.4887700000000001e-09
aF3.19242e-09
aF3.2445899999999999e-09
aF3.3856200000000001e-09
aF3.4872000000000001e-09
aF3.6595499999999998e-09
aF4.0996700000000002e-09
aF4.2620700000000004e-09
aF4.0403400000000001e-09
aF4.06585e-09
aF4.1422299999999997e-09
aF4.2537500000000001e-09
aF4.4279499999999998e-09
aF4.7568299999999996e-09
aF5.2703400000000002e-09
aF4.8402099999999998e-09
aF4.7823899999999997e-09
aF4.8063699999999998e-09
aF4.8755900000000001e-09
aF4.9672699999999999e-09
aF5.2361999999999998e-09
aF5.9618099999999997e-09
aF5.3265400000000001e-09
aF5.20802e-09
aF5.1976399999999998e-09
aF5.2239099999999996e-09
aF5.26537e-09
aF5.3981100000000001e-09
aF6.0777700000000002e-09
aF5.5598200000000003e-09
aF5.3065600000000003e-09
aF5.2480000000000001e-09
aF5.2113899999999997e-09
aF5.2256099999999997e-09
aF5.2673799999999997e-09
aF5.6817200000000001e-09
aF5.4020999999999998e-09
aF5.0600700000000003e-09
aF4.9401599999999996e-09
aF4.84634e-09
aF4.8039199999999997e-09
aF4.8237899999999999e-09
aF5.0573300000000004e-09
aF4.9338900000000002e-09
aF4.5693799999999998e-09
aF4.40558e-09
aF4.3401899999999997e-09
aF4.3071799999999996e-09
aF4.2851700000000004e-09
aF4.3569000000000001e-09
aF4.39389e-09
aF4.0927000000000001e-09
aF3.9213699999999997e-09
aF3.8374e-09
aF3.8376400000000004e-09
aF3.9224599999999997e-09
aF4.1050499999999996e-09
aF4.3176000000000001e-09
aF4.0985499999999997e-09
aF3.9819899999999998e-09
aF3.9543400000000002e-09
aF4.0125900000000001e-09
aF4.1635000000000004e-09
aF4.40182e-09
aF4.7305099999999996e-09
aF4.3541700000000001e-09
aF4.1214600000000004e-09
aF3.9496699999999997e-09
aF3.8903199999999999e-09
aF3.9543400000000002e-09
aF4.0793100000000001e-09
aF4.3248699999999998e-09
aF4.2367599999999998e-09
aF4.16155e-09
aF4.1047300000000002e-09
aF4.0335899999999999e-09
aF4.1089700000000001e-09
aF4.3141299999999999e-09
aF4.5778200000000002e-09
aF4.5936800000000002e-09
aF4.5001800000000001e-09
aF4.4345099999999998e-09
aF4.4498700000000001e-09
aF4.5512099999999996e-09
aF4.6972199999999996e-09
aF4.8879600000000001e-09
aF4.9513900000000002e-09
aF4.84607e-09
aF4.75194e-09
aF4.6997100000000001e-09
aF4.7229500000000001e-09
aF4.8199899999999996e-09
aF4.9982499999999998e-09
aF5.1562400000000004e-09
aF4.9662900000000002e-09
aF4.8413400000000002e-09
aF4.7787200000000002e-09
aF4.7872899999999999e-09
aF4.8550700000000003e-09
aF4.9759599999999998e-09
aF5.14834e-09
aF4.8705300000000001e-09
aF4.6762500000000003e-09
aF4.5402800000000004e-09
aF4.4873499999999998e-09
aF4.5117599999999997e-09
aF4.6233099999999998e-09
aF4.8297100000000003e-09
aF4.54229e-09
aF4.3240700000000004e-09
aF4.17344e-09
aF4.0964299999999997e-09
aF4.0907499999999998e-09
aF4.1790599999999998e-09
aF4.4166699999999998e-09
aF4.2961599999999998e-09
aF4.0745700000000003e-09
aF3.9277799999999999e-09
aF3.8687299999999997e-09
aF3.9028700000000002e-09
aF4.0298399999999998e-09
aF4.3235599999999999e-09
aF4.3130399999999998e-09
aF4.0802099999999999e-09
aF3.9515199999999996e-09
aF3.91546e-09
aF3.9598999999999999e-09
aF4.09066e-09
aF4.3550400000000003e-09
aF4.4543800000000001e-09
aF4.1932699999999999e-09
aF4.0311299999999999e-09
aF3.9762800000000003e-09
aF4.00501e-09
aF4.1132700000000002e-09
aF4.3180100000000001e-09
aF4.4655599999999996e-09
aF4.1713700000000002e-09
aF3.9529600000000004e-09
aF3.8190000000000002e-09
aF3.7696300000000004e-09
aF3.8017700000000002e-09
aF3.92524e-09
aF4.1363100000000002e-09
aF3.8544800000000001e-09
aF3.6573299999999998e-09
aF3.5436499999999999e-09
aF3.4998500000000001e-09
aF3.5214699999999998e-09
aF3.61008e-09
aF3.7959399999999996e-09
aF3.6025999999999999e-09
aF3.4035899999999998e-09
aF3.2909399999999998e-09
aF3.23412e-09
aF3.2305799999999998e-09
aF3.3016599999999999e-09
aF3.4665e-09
aF3.3638399999999998e-09
aF3.1596899999999999e-09
aF3.05116e-09
aF3.0002600000000001e-09
aF3.0108099999999999e-09
aF3.0847900000000001e-09
aF3.2477699999999998e-09
aF3.26382e-09
aF3.1087699999999998e-09
aF3.0493100000000001e-09
aF3.0384199999999999e-09
aF3.0768699999999999e-09
aF3.1735299999999999e-09
aF3.3257700000000002e-09
aF3.4412499999999999e-09
aF3.3671899999999998e-09
aF3.34626e-09
aF3.3344500000000002e-09
aF3.3621899999999999e-09
aF3.43933e-09
aF3.5642400000000001e-09
aF3.6697299999999999e-09
aF3.4730999999999999e-09
aF3.28395e-09
aF3.12222e-09
aF3.00376e-09
aF2.96985e-09
aF3.0450300000000002e-09
aF3.25244e-09
aF3.1597299999999998e-09
aF3.0734400000000001e-09
aF3.0330599999999999e-09
aF3.0266399999999998e-09
aF3.0614800000000001e-09
aF3.1818100000000002e-09
aF3.4192699999999999e-09
aF3.2899200000000002e-09
aF3.0906199999999998e-09
aF2.9791899999999999e-09
aF2.9350500000000001e-09
aF2.9592800000000001e-09
aF3.0554600000000001e-09
aF3.2633000000000001e-09
aF3.25357e-09
aF3.07116e-09
aF2.9685100000000001e-09
aF2.93742e-09
aF2.95745e-09
aF3.0387100000000001e-09
aF3.2218400000000001e-09
aF3.2280099999999999e-09
aF2.9888999999999999e-09
aF2.8461900000000001e-09
aF2.7640099999999998e-09
aF2.74106e-09
aF2.77435e-09
aF2.8814799999999999e-09
aF2.9566900000000001e-09
aF2.7381800000000002e-09
aF2.6214300000000001e-09
aF2.5625899999999999e-09
aF2.53654e-09
aF2.5384599999999999e-09
aF2.5729899999999998e-09
aF2.6622000000000002e-09
aF2.5047599999999999e-09
aF2.42977e-09
aF2.3655400000000001e-09
aF2.3158599999999999e-09
aF2.2885300000000002e-09
aF2.2930599999999999e-09
aF2.42649e-09
aF2.2328e-09
aF2.0824299999999998e-09
aF1.9736399999999998e-09
aF1.89642e-09
aF1.84804e-09
aF1.85058e-09
aF2.0108899999999999e-09
aF1.84168e-09
aF1.65023e-09
aF1.5570299999999999e-09
aF1.50386e-09
aF1.48074e-09
aF1.4912899999999999e-09
aF1.57022e-09
aF1.5425800000000001e-09
aF1.40955e-09
aF1.3559599999999999e-09
aF1.32721e-09
aF1.31624e-09
aF1.32287e-09
aF1.35987e-09
aF1.3848e-09
aF1.3024600000000001e-09
aF1.2747e-09
aF1.2565699999999999e-09
aF1.2412399999999999e-09
aF1.2372599999999999e-09
aF1.2528099999999999e-09
aF1.29221e-09
aF1.20682e-09
aF1.1649600000000001e-09
aF1.1397700000000001e-09
aF1.12616e-09
aF1.1243900000000001e-09
aF1.14538e-09
aF1.1976000000000001e-09
aF1.1285e-09
aF1.0731699999999999e-09
aF1.03567e-09
aF1.01267e-09
aF1.0066599999999999e-09
aF1.0213899999999999e-09
aF1.05703e-09
aF1.0065800000000001e-09
aF9.492730000000001e-10
aF9.0976299999999999e-10
aF8.8476299999999998e-10
aF8.7434300000000003e-10
aF8.7746400000000002e-10
aF8.9495500000000004e-10
aF8.67879e-10
aF8.1690299999999997e-10
aF7.8134599999999996e-10
aF7.5719299999999997e-10
aF7.4187299999999997e-10
aF7.3488299999999997e-10
aF7.3641800000000001e-10
aF7.1863399999999996e-10
aF6.7384499999999996e-10
aF6.3810500000000004e-10
aF6.0898699999999996e-10
aF5.8788499999999998e-10
aF5.7328899999999998e-10
aF9.8667700000000001e-07
aF9.5781900000000006e-07
aF8.9008300000000002e-07
aF8.3069100000000001e-07
aF7.7879199999999995e-07
aF7.3453299999999998e-07
aF6.9724599999999997e-07
aF6.6838199999999996e-07
aF6.5064299999999999e-07
aF5.9021800000000005e-07
aF5.4094199999999997e-07
aF5.0025800000000001e-07
aF4.65591e-07
aF4.36265e-07
aF4.1370000000000001e-07
aF4.0018900000000001e-07
aF3.6403000000000001e-07
aF3.3279699999999999e-07
aF3.0747399999999999e-07
aF2.8649200000000002e-07
aF2.6979599999999999e-07
aF2.58389e-07
aF2.5946799999999998e-07
aF2.3867699999999999e-07
aF2.13361e-07
aF1.9525400000000001e-07
aF1.8038999999999999e-07
aF1.67884e-07
aF1.59161e-07
aF1.58038e-07
aF1.4656299999999999e-07
aF1.2459300000000001e-07
aF1.10312e-07
aF1.00265e-07
aF9.1551100000000002e-08
aF8.4551199999999998e-08
aF8.0438200000000006e-08
aF7.80818e-08
aF6.5663499999999998e-08
aF5.90387e-08
aF5.3343499999999997e-08
aF4.8449599999999999e-08
aF4.3042999999999997e-08
aF3.7007799999999999e-08
aF3.4202499999999998e-08
aF2.9382999999999999e-08
aF2.68548e-08
aF2.3442900000000001e-08
aF1.8919600000000002e-08
aF1.3621999999999999e-08
aF7.49694e-09
aF6.9193699999999997e-10
asS'p'
(lp57
F0.088342100000000007
aF0.0466267
aF0.040382500000000002
aF0.0355713
aF0.032477300000000001
aF0.029170399999999999
aF0.024831900000000001
aF0.023099100000000001
aF0.020616599999999999
aF0.0186739
aF0.0175651
aF0.017066999999999999
aF0.017071900000000001
aF0.0139562
aF0.015724399999999999
aF0.014560399999999999
aF0.013779
aF0.0137349
aF0.014001100000000001
aF0.0143833
aF0.01136
aF0.0138467
aF0.0127972
aF0.012067899999999999
aF0.0119874
aF0.012262
aF0.0127671
aF0.010748799999999999
aF0.0127426
aF0.0118224
aF0.0110644
aF0.0109008
aF0.011280999999999999
aF0.011754499999999999
aF0.011244499999999999
aF0.011944400000000001
aF0.011192000000000001
aF0.0105626
aF0.0101834
aF0.0104271
aF0.010816299999999999
aF0.0112961
aF0.010474499999999999
aF0.0104633
aF0.0098729899999999999
aF0.0094771200000000003
aF0.0095353299999999998
aF0.0098438499999999995
aF0.010314
aF0.0084171799999999998
aF0.0099309199999999993
aF0.0093823199999999995
aF0.0089217099999999994
aF0.0087533400000000001
aF0.0090055199999999995
aF0.0094043600000000005
aF0.0071745799999999998
aF0.0093622299999999992
aF0.0088116099999999992
aF0.0083708199999999993
aF0.0082954199999999995
aF0.0085633299999999992
aF0.0089335000000000005
aF0.0072630799999999999
aF0.0087089000000000003
aF0.0083735800000000003
aF0.0081734700000000004
aF0.0082749499999999997
aF0.0086708400000000008
aF0.0091678899999999997
aF0.0082520500000000004
aF0.0093217899999999999
aF0.0089260799999999994
aF0.0086015799999999993
aF0.0084922599999999997
aF0.0086934000000000004
aF0.0090494400000000006
aF0.0093692099999999993
aF0.0096406200000000008
aF0.0092631899999999993
aF0.0088867400000000006
aF0.0085950200000000001
aF0.0086745899999999994
aF0.0090529900000000003
aF0.0095309499999999998
aF0.0086823999999999998
aF0.0096541200000000004
aF0.0092388899999999996
aF0.0088699699999999996
aF0.0088335400000000008
aF0.0091582799999999995
aF0.0096272200000000006
aF0.00769172
aF0.010000999999999999
aF0.0096057099999999999
aF0.00922129
aF0.0090200100000000002
aF0.0093948699999999996
aF0.0099022699999999995
aF0.0076435799999999996
aF0.010397200000000001
aF0.0098841699999999994
aF0.0094741800000000004
aF0.0093297199999999997
aF0.0097037900000000003
aF0.0103039
aF0.0087130999999999997
aF0.0110116
aF0.0104536
aF0.0099437499999999995
aF0.0097664899999999992
aF0.0100946
aF0.010785400000000001
aF0.010544
aF0.0117871
aF0.0110796
aF0.010469900000000001
aF0.010134199999999999
aF0.010333
aF0.0110825
aF0.0120427
aF0.0116945
aF0.011765599999999999
aF0.0110524
aF0.010528600000000001
aF0.0107107
aF0.0114699
aF0.012260399999999999
aF0.010115499999999999
aF0.012421400000000001
aF0.0115055
aF0.0108304
aF0.0110189
aF0.011677699999999999
aF0.012485700000000001
aF0.0093180899999999994
aF0.013180600000000001
aF0.012354499999999999
aF0.0117658
aF0.011754000000000001
aF0.012438100000000001
aF0.0131559
aF0.010717000000000001
aF0.014260999999999999
aF0.0131729
aF0.012186000000000001
aF0.0119282
aF0.0122615
aF0.0128288
aF0.011377699999999999
aF0.0135791
aF0.0125036
aF0.011641
aF0.011444599999999999
aF0.011905000000000001
aF0.0127078
aF0.0131682
aF0.0139927
aF0.013162999999999999
aF0.012399800000000001
aF0.0119528
aF0.0123404
aF0.013048000000000001
aF0.0138429
aF0.0124289
aF0.013576299999999999
aF0.012727499999999999
aF0.0120667
aF0.012246
aF0.012772500000000001
aF0.0134305
aF0.010259000000000001
aF0.0135476
aF0.012674100000000001
aF0.011964199999999999
aF0.0120375
aF0.0125962
aF0.0132607
aF0.0098783399999999993
aF0.0134945
aF0.012605699999999999
aF0.0118412
aF0.011787199999999999
aF0.0123146
aF0.0129149
aF0.0105147
aF0.013277300000000001
aF0.0123643
aF0.011584199999999999
aF0.011410200000000001
aF0.0119437
aF0.012500600000000001
aF0.011745500000000001
aF0.0129704
aF0.012162600000000001
aF0.011405500000000001
aF0.0111947
aF0.011613099999999999
aF0.012290000000000001
aF0.0130192
aF0.0122971
aF0.0121943
aF0.011414199999999999
aF0.0112246
aF0.011690900000000001
aF0.0124101
aF0.0133077
aF0.010752599999999999
aF0.0131644
aF0.0124239
aF0.0118136
aF0.011945799999999999
aF0.012652500000000001
aF0.0134573
aF0.0103152
aF0.013972699999999999
aF0.0129035
aF0.0121236
aF0.011938000000000001
aF0.0124855
aF0.0133054
aF0.010206
aF0.0137181
aF0.012826600000000001
aF0.0120299
aF0.012027400000000001
aF0.0127273
aF0.013619900000000001
aF0.0119788
aF0.0145424
aF0.013705999999999999
aF0.0129281
aF0.012704699999999999
aF0.013216500000000001
aF0.014050099999999999
aF0.014504400000000001
aF0.015362000000000001
aF0.0143658
aF0.013492000000000001
aF0.012970499999999999
aF0.0133416
aF0.0140372
aF0.014877899999999999
aF0.0133372
aF0.014382499999999999
aF0.0134441
aF0.012785299999999999
aF0.0130405
aF0.0136151
aF0.014387199999999999
aF0.0109788
aF0.014152
aF0.0131799
aF0.012453199999999999
aF0.0125124
aF0.013000899999999999
aF0.0136016
aF0.0099919899999999992
aF0.013460700000000001
aF0.0125275
aF0.011768600000000001
aF0.0117213
aF0.012111
aF0.0126144
aF0.0102037
aF0.0127419
aF0.011972699999999999
aF0.0112587
aF0.011152199999999999
aF0.011547699999999999
aF0.012076999999999999
aF0.011199600000000001
aF0.012326699999999999
aF0.0116749
aF0.0110387
aF0.0107551
aF0.0111298
aF0.011690600000000001
aF0.0123608
aF0.0119977
aF0.011687400000000001
aF0.0109876
aF0.010563299999999999
aF0.0107562
aF0.0113989
aF0.012234800000000001
aF0.0103736
aF0.0123965
aF0.011632200000000001
aF0.0110042
aF0.0110852
aF0.0117996
aF0.0126587
aF0.0091891100000000003
aF0.0129988
aF0.0123322
aF0.011641800000000001
aF0.011630700000000001
aF0.0123398
aF0.013194000000000001
aF0.0100187
aF0.0135914
aF0.0128413
aF0.0121289
aF0.0119831
aF0.0126064
aF0.0134577
aF0.0115517
aF0.0139659
aF0.013178
aF0.0123692
aF0.0120372
aF0.012531
aF0.013266999999999999
aF0.013339699999999999
aF0.013816800000000001
aF0.013021
aF0.0122544
aF0.011751299999999999
aF0.0120556
aF0.0126398
aF0.013347700000000001
aF0.0117883
aF0.0127013
aF0.011877
aF0.011126499999999999
aF0.0112803
aF0.0118003
aF0.0124204
aF0.00939247
aF0.0122229
aF0.011380599999999999
aF0.0105887
aF0.0105901
aF0.0110245
aF0.0115929
aF0.0084265899999999994
aF0.011795999999999999
aF0.011032800000000001
aF0.0103584
aF0.0103465
aF0.0106841
aF0.011203899999999999
aF0.0089467999999999995
aF0.011611399999999999
aF0.010969100000000001
aF0.0103874
aF0.010312399999999999
aF0.0107513
aF0.0112061
aF0.010410900000000001
aF0.011280800000000001
aF0.010815999999999999
aF0.0104715
aF0.010379299999999999
aF0.010822699999999999
aF0.0115196
aF0.012234800000000001
asg39
(lp58
F1.2235199999999999e-06
aF3.6344799999999999e-07
aF1.51706e-07
aF7.6813500000000002e-08
aF4.41917e-08
aF2.9791900000000001e-08
aF2.14883e-08
aF1.5375899999999999e-08
aF1.1816999999999999e-08
aF9.2316099999999993e-09
aF7.2888099999999998e-09
aF5.94702e-09
aF4.9125399999999997e-09
aF4.0850400000000002e-09
aF3.3726599999999998e-09
aF2.8652099999999999e-09
aF2.4638700000000001e-09
aF2.1661000000000002e-09
aF1.8879899999999998e-09
aF1.6707599999999999e-09
aF1.4887599999999999e-09
aF1.32393e-09
aF1.18956e-09
aF1.0676200000000001e-09
aF9.6454299999999999e-10
aF8.7546999999999998e-10
aF8.0536200000000002e-10
aF7.25256e-10
aF6.4403e-10
aF6.0198799999999999e-10
aF5.38988e-10
aF4.9767999999999998e-10
aF4.6115800000000002e-10
aF4.2713899999999998e-10
aF4.0417199999999998e-10
aF3.6542299999999999e-10
aF9.9143899999999996e-07
aF9.3071100000000003e-07
aF8.7226099999999998e-07
aF8.1832799999999999e-07
aF7.7426999999999996e-07
aF7.3505799999999996e-07
aF7.1218000000000002e-07
aF6.72246e-07
aF6.3321900000000003e-07
aF5.9558199999999999e-07
aF5.6364000000000004e-07
aF5.3586299999999996e-07
aF5.1174899999999999e-07
aF5.0142100000000003e-07
aF4.8180699999999997e-07
aF4.5406199999999998e-07
aF4.2973399999999998e-07
aF4.10146e-07
aF3.9394199999999999e-07
aF9.7354899999999995e-07
aF9.4845800000000001e-07
aF9.2372600000000002e-07
aF8.7923399999999997e-07
aF8.3795899999999999e-07
aF8.0425600000000003e-07
aF7.7609900000000005e-07
aF7.5112899999999995e-07
aF7.2739399999999996e-07
aF7.1059799999999997e-07
aF6.8238299999999998e-07
aF6.5823200000000004e-07
aF6.3194100000000001e-07
aF6.1418499999999999e-07
aF5.9660400000000004e-07
aF5.7823100000000004e-07
aF5.6922000000000001e-07
aF5.4602099999999999e-07
aF5.2656700000000001e-07
aF5.0471699999999995e-07
aF4.8873099999999998e-07
aF4.7789799999999996e-07
aF4.6759999999999998e-07
aF4.6446200000000002e-07
aF4.4287699999999998e-07
aF4.2544399999999998e-07
aF4.1223700000000001e-07
aF3.98658e-07
aF9.9808999999999996e-07
aF9.7766199999999998e-07
aF9.5660299999999995e-07
aF9.28746e-07
aF8.9823400000000002e-07
aF8.7404399999999996e-07
aF8.50007e-07
aF8.3069699999999996e-07
aF8.146e-07
aF7.9031300000000002e-07
aF7.7056800000000005e-07
aF7.4919900000000004e-07
aF7.27223e-07
aF7.1062000000000005e-07
aF7.0041899999999999e-07
aF6.90385e-07
aF6.7607999999999995e-07
aF6.6292700000000004e-07
aF6.4585300000000001e-07
aF6.2440000000000001e-07
aF6.1817600000000004e-07
aF6.08455e-07
aF6.10695e-07
aF5.9956299999999998e-07
aF5.9819500000000002e-07
aF5.81091e-07
aF5.6572499999999999e-07
aF5.6134699999999995e-07
aF5.7074499999999997e-07
aF5.54456e-07
aF5.5481099999999995e-07
aF5.54245e-07
aF5.3604399999999998e-07
aF5.2876200000000003e-07
aF5.2738100000000003e-07
aF5.3170099999999995e-07
aF5.3341999999999997e-07
aF5.3411899999999999e-07
aF5.3466900000000003e-07
aF5.3155800000000003e-07
aF5.2264099999999995e-07
aF5.24154e-07
aF5.2247600000000005e-07
aF5.2376199999999998e-07
aF5.36528e-07
aF5.2884300000000005e-07
aF5.30464e-07
aF5.1898699999999999e-07
aF5.1297999999999998e-07
aF5.0778500000000004e-07
aF5.1103499999999997e-07
aF5.1450599999999996e-07
aF5.1050599999999998e-07
aF5.1650000000000005e-07
aF5.0769700000000005e-07
aF4.9956599999999996e-07
aF5.0073900000000005e-07
aF4.9850399999999998e-07
aF5.1058500000000004e-07
aF4.9758600000000005e-07
aF5.1527699999999996e-07
aF5.0035199999999995e-07
aF4.9125700000000004e-07
aF4.9747500000000005e-07
aF5.0961499999999995e-07
aF6.7034199999999996e-07
aF4.9387200000000002e-07
aF5.0468399999999999e-07
aF4.9472199999999997e-07
aF4.9285300000000005e-07
aF4.8614499999999996e-07
aF4.8945899999999996e-07
aF4.9819200000000004e-07
aF4.8235499999999995e-07
aF4.9130399999999996e-07
aF4.7678600000000002e-07
aF4.6898299999999998e-07
aF4.6330599999999998e-07
aF4.6277000000000001e-07
aF4.6333200000000001e-07
aF4.6809200000000001e-07
aF4.8053299999999995e-07
aF4.8292900000000002e-07
aF4.7477099999999998e-07
aF4.6670000000000002e-07
aF4.6480599999999999e-07
aF4.62296e-07
aF4.6088799999999999e-07
aF4.6293799999999999e-07
aF4.7043699999999999e-07
aF4.6109200000000001e-07
aF4.5704200000000002e-07
aF4.5618899999999998e-07
aF4.5920500000000001e-07
aF4.6557699999999999e-07
aF4.59989e-07
aF4.6578100000000001e-07
aF4.6078700000000001e-07
aF4.5654300000000001e-07
aF4.5835000000000002e-07
aF4.6214799999999999e-07
aF4.6461399999999998e-07
aF4.6324099999999999e-07
aF4.7666199999999998e-07
aF4.6940099999999998e-07
aF4.6367000000000002e-07
aF4.6276899999999998e-07
aF4.6436899999999999e-07
aF4.69582e-07
aF4.70416e-07
aF4.8514700000000005e-07
aF4.7991000000000001e-07
aF4.6870800000000002e-07
aF4.6974399999999997e-07
aF4.7043200000000001e-07
aF4.7518499999999998e-07
aF4.8008099999999997e-07
aF4.8279699999999998e-07
aF4.7698000000000003e-07
aF4.6879600000000001e-07
aF4.8377700000000003e-07
aF4.6760799999999999e-07
aF4.7054799999999999e-07
aF4.8515700000000001e-07
aF4.7620900000000003e-07
aF4.7644899999999998e-07
aF4.7386599999999999e-07
aF4.6503399999999998e-07
aF4.6280900000000003e-07
aF4.7309699999999999e-07
aF4.8889199999999998e-07
aF4.9773999999999996e-07
aF5.30226e-07
aF4.7302700000000002e-07
aF4.6433399999999998e-07
aF4.5539899999999999e-07
aF4.5754299999999998e-07
aF4.5602700000000001e-07
aF4.4761399999999997e-07
aF4.6868199999999999e-07
aF4.6384499999999998e-07
aF4.5869599999999999e-07
aF4.5155300000000002e-07
aF4.5510899999999998e-07
aF4.57584e-07
aF4.5488099999999998e-07
aF4.74883e-07
aF4.6684999999999998e-07
aF4.63395e-07
aF4.5376899999999999e-07
aF4.5453100000000001e-07
aF4.5949699999999998e-07
aF4.7116100000000002e-07
aF4.7430800000000001e-07
aF4.6087000000000002e-07
aF4.5227000000000001e-07
aF4.4975099999999999e-07
aF4.5053e-07
aF4.4951200000000001e-07
aF4.5785900000000002e-07
aF4.5551199999999998e-07
aF4.5348499999999999e-07
aF4.4969800000000001e-07
aF4.45657e-07
aF4.4878199999999997e-07
aF4.4879100000000001e-07
aF4.5573600000000003e-07
aF4.4404899999999998e-07
aF4.5363799999999998e-07
aF4.5212600000000001e-07
aF4.4567899999999998e-07
aF6.0702600000000005e-07
aF4.4690699999999999e-07
aF4.5045699999999999e-07
aF4.4209200000000001e-07
aF4.4770600000000003e-07
aF4.3642599999999999e-07
aF4.3512100000000002e-07
aF4.37339e-07
aF4.4111499999999999e-07
aF4.45511e-07
aF4.39769e-07
aF4.4515700000000002e-07
aF4.4123199999999999e-07
aF4.3533200000000002e-07
aF4.2981200000000001e-07
aF4.3336000000000001e-07
aF4.3760699999999998e-07
aF4.4251699999999999e-07
aF4.4542500000000001e-07
aF4.4130299999999999e-07
aF4.3725500000000001e-07
aF4.3510199999999997e-07
aF4.3465899999999997e-07
aF4.3705200000000001e-07
aF4.4617700000000001e-07
aF4.3990800000000002e-07
aF4.40678e-07
aF4.3549100000000002e-07
aF4.2490800000000001e-07
aF4.2498399999999999e-07
aF4.2888000000000001e-07
aF4.3424e-07
aF4.4076799999999999e-07
aF4.3882499999999999e-07
aF4.3179199999999998e-07
aF4.25418e-07
aF4.2203799999999998e-07
aF4.2372300000000002e-07
aF4.2574800000000001e-07
aF4.2482400000000002e-07
aF4.3693199999999998e-07
aF4.28406e-07
aF4.2193999999999998e-07
aF8.2286499999999998e-07
aF4.2292100000000001e-07
aF4.31762e-07
aF4.2443100000000002e-07
aF4.3646799999999999e-07
aF4.3467400000000002e-07
aF4.3541899999999999e-07
aF4.4088099999999999e-07
aF4.4156700000000003e-07
aF4.5026400000000001e-07
aF4.4193700000000002e-07
aF4.45818e-07
aF4.4332900000000001e-07
aF4.4464700000000002e-07
aF4.4501100000000001e-07
aF4.4720799999999999e-07
aF4.5084900000000002e-07
aF4.5561500000000002e-07
aF4.5257300000000001e-07
aF4.5870800000000001e-07
aF4.6396700000000001e-07
aF4.5125000000000002e-07
aF4.5045200000000002e-07
aF4.5696599999999999e-07
aF4.6255399999999997e-07
aF4.5372299999999999e-07
aF4.5559600000000003e-07
aF4.4879300000000001e-07
aF4.4977399999999999e-07
aF4.5079999999999999e-07
aF4.4820400000000001e-07
aF4.60969e-07
aF8.4693299999999995e-07
aF4.5681900000000001e-07
aF4.5480200000000002e-07
aF4.54989e-07
aF4.5505100000000002e-07
aF4.57605e-07
aF4.6388100000000002e-07
aF4.6248699999999998e-07
aF4.7139900000000002e-07
aF4.7267299999999999e-07
aF4.7166300000000001e-07
aF4.7019299999999998e-07
aF4.7961699999999997e-07
aF4.8638100000000002e-07
aF4.8128499999999996e-07
aF4.9325199999999995e-07
aF4.88137e-07
aF4.8532099999999998e-07
aF4.8444800000000002e-07
aF4.9372799999999996e-07
aF4.9716899999999997e-07
aF4.9807499999999999e-07
aF5.0477199999999999e-07
aF4.9636600000000004e-07
aF4.9319700000000002e-07
aF4.9776500000000001e-07
aF5.0247699999999995e-07
aF4.98129e-07
aF5.1450699999999999e-07
asg40
(lp59
F10
aF10
aF10
aF10
aF10
aF10
aF10
aF10
aF10
aF10
aF10
aF10
aF10
aF10
aF10
aF10
aF10
aF10
aF10
aF10
aF10
aF10
aF10
aF10
aF10
aF10
aF10
aF10
aF10
aF10
aF10
aF10
aF10
aF10
aF10
aF10
aF9
aF9
aF9
aF9
aF9
aF9
aF9
aF9
aF9
aF9
aF9
aF9
aF9
aF9
aF9
aF9
aF9
aF9
aF9
aF8
aF8
aF8
aF8
aF8
aF8
aF8
aF8
aF8
aF8
aF8
aF8
aF8
aF8
aF8
aF8
aF8
aF8
aF8
aF8
aF8
aF8
aF8
aF8
aF8
aF8
aF8
aF8
aF7
aF7
aF7
aF7
aF7
aF7
aF7
aF7
aF7
aF7
aF7
aF7
aF7
aF7
aF7
aF7
aF7
aF7
aF7
aF7
aF7
aF7
aF7
aF7
aF7
aF7
aF7
aF7
aF7
aF7
aF7
aF7
aF7
aF7
aF7
aF7
aF7
aF7
aF7
aF7
aF7
aF7
aF7
aF7
aF7
aF7
aF7
aF7
aF7
aF7
aF7
aF7
aF7
aF7
aF7
aF7
aF7
aF7
aF7
aF7
aF7
aF7
aF7
aF7
aF7
aF7
aF7
aF7
aF7
aF7
aF7
aF7
aF7
aF7
aF7
aF7
aF7
aF7
aF7
aF7
aF7
aF7
aF7
aF7
aF7
aF7
aF7
aF7
aF7
aF7
aF7
aF7
aF7
aF7
aF7
aF7
aF7
aF7
aF7
aF7
aF7
aF7
aF7
aF7
aF7
aF7
aF7
aF7
aF7
aF7
aF7
aF7
aF7
aF7
aF7
aF7
aF7
aF7
aF7
aF7
aF7
aF7
aF7
aF7
aF7
aF7
aF7
aF7
aF7
aF7
aF7
aF7
aF7
aF7
aF7
aF7
aF7
aF7
aF7
aF7
aF7
aF7
aF7
aF7
aF7
aF7
aF7
aF7
aF7
aF7
aF7
aF7
aF7
aF7
aF7
aF7
aF7
aF7
aF7
aF7
aF7
aF7
aF7
aF7
aF7
aF7
aF7
aF7
aF7
aF7
aF7
aF8
aF7
aF7
aF7
aF7
aF7
aF7
aF7
aF7
aF7
aF7
aF7
aF7
aF7
aF7
aF7
aF7
aF7
aF7
aF7
aF7
aF7
aF7
aF7
aF7
aF7
aF7
aF7
aF7
aF7
aF7
aF7
aF7
aF7
aF7
aF7
aF7
aF7
aF7
aF7
aF7
aF7
aF7
aF7
aF7
aF7
aF7
aF7
aF7
aF7
aF7
aF7
aF7
aF7
aF7
aF7
aF7
aF7
aF7
aF7
aF7
aF7
aF7
aF7
aF7
aF7
aF7
aF7
aF7
aF7
aF7
aF7
aF7
aF7
aF7
aF7
aF7
aF7
aF7
aF7
aF7
aF7
aF7
aF7
aF7
aF7
aF7
aF7
aF7
aF7
aF7
aF7
aF7
aF7
aF7
aF7
aF7
aF7
aF7
aF7
aF7
aF7
aF7
aF7
asg38
(lp60
F2.1747700000000001e-07
aF4.2146800000000003e-08
aF1.7655499999999999e-08
aF9.4510299999999994e-09
aF4.7795400000000002e-09
aF3.27141e-09
aF2.3147100000000002e-09
aF1.4709699999999999e-09
aF1.11628e-09
aF8.2685400000000003e-10
aF8.8107300000000002e-07
aF7.3664400000000002e-07
aF6.3127299999999999e-07
aF5.7253599999999996e-07
aF4.9873300000000005e-07
aF4.4220599999999998e-07
aF9.9186500000000007e-07
aF9.1956800000000002e-07
aF8.3485400000000005e-07
aF7.7179100000000003e-07
aF7.1871300000000004e-07
aF6.8654899999999999e-07
aF6.4435199999999997e-07
aF6.1647399999999997e-07
aF5.9099799999999998e-07
aF5.7816399999999999e-07
aF5.8277200000000003e-07
aF5.8092499999999997e-07
aF5.8472999999999997e-07
aF5.8052999999999997e-07
aF5.5793600000000003e-07
aF5.40966e-07
aF5.3961799999999996e-07
aF5.4178400000000003e-07
aF5.4050099999999998e-07
aF5.5867799999999997e-07
aF5.5031500000000004e-07
aF5.4870300000000001e-07
aF5.3935399999999997e-07
aF5.1961400000000004e-07
aF5.2335800000000005e-07
aF5.2185700000000001e-07
aF5.5264600000000001e-07
aF5.2538799999999997e-07
aF5.0837999999999995e-07
aF4.94673e-07
aF4.8811999999999995e-07
aF4.7774199999999999e-07
aF4.9235199999999999e-07
aF5.0628e-07
aF5.05551e-07
aF4.7709900000000003e-07
aF4.6268000000000001e-07
aF4.5308900000000001e-07
aF4.7412600000000002e-07
aF4.6264400000000002e-07
aF4.5900799999999998e-07
aF4.7703499999999996e-07
aF4.4630799999999998e-07
aF4.2818400000000002e-07
aF4.3490800000000002e-07
aF4.31789e-07
aF4.39606e-07
aF4.2790099999999999e-07
aF4.5679499999999998e-07
aF2.2184699999999999e-10
aF9.959859999999999e-07
aF2.0456599999999999e-10
aF2.01168e-10
aF9.99787e-07
aF9.8708199999999997e-07
aF9.9259900000000001e-07
aF9.6431099999999991e-07
aF9.5014499999999999e-07
aF9.2544599999999996e-07
aF9.1941e-07
aF9.2980799999999998e-07
aF9.3966499999999996e-07
aF9.8713100000000005e-07
aF9.1928599999999996e-07
aF8.7291e-07
aF8.9225800000000002e-07
aF8.7653399999999998e-07
aF8.7603000000000004e-07
aF8.89158e-07
aF8.8333499999999999e-07
aF8.6508700000000005e-07
aF8.3878e-07
aF8.5888400000000003e-07
aF8.5489100000000003e-07
aF8.67655e-07
aF8.8303000000000004e-07
aF8.5014700000000005e-07
aF8.72162e-07
aF8.4367399999999999e-07
aF8.23188e-07
aF8.2009499999999996e-07
aF8.3961800000000005e-07
aF8.71138e-07
aF8.6218200000000001e-07
aF8.8537400000000005e-07
aF8.8074899999999997e-07
aF8.1604799999999995e-07
aF8.1636100000000001e-07
aF8.2279199999999997e-07
aF8.3477700000000004e-07
aF8.6932299999999998e-07
aF9.0923e-07
aF8.4055700000000003e-07
aF8.1960099999999998e-07
aF8.3562900000000005e-07
aF8.6836500000000001e-07
aF9.0554200000000005e-07
aF9.3714700000000002e-07
aF9.1930000000000003e-07
aF8.5133200000000004e-07
aF8.4533799999999997e-07
aF8.6911099999999995e-07
aF8.9647499999999996e-07
aF9.1312599999999997e-07
aF9.4194200000000003e-07
aF8.9489899999999997e-07
aF8.6430199999999998e-07
aF8.74383e-07
aF9.1219600000000002e-07
aF9.1652200000000001e-07
aF9.3204500000000001e-07
aF9.9732099999999991e-07
aF9.2878399999999999e-07
aF9.1503699999999999e-07
aF8.9319999999999998e-07
aF8.9250000000000003e-07
aF8.8498500000000001e-07
aF8.9962300000000003e-07
aF9.3722700000000001e-07
aF8.9841400000000001e-07
aF8.9371600000000003e-07
aF8.8487800000000002e-07
aF8.6542000000000003e-07
aF8.8392899999999997e-07
aF9.2117600000000004e-07
aF9.8778799999999998e-07
aF9.3173900000000003e-07
aF9.4044900000000001e-07
aF8.5519599999999998e-07
aF8.2305e-07
aF8.3716399999999996e-07
aF8.7773300000000004e-07
aF5.3833399999999998e-07
aF8.9921200000000002e-07
aF9.1192499999999996e-07
aF8.7246200000000002e-07
aF8.7824399999999996e-07
aF8.7504599999999999e-07
aF8.8702399999999996e-07
aF9.4975100000000002e-07
aF9.2193900000000003e-07
aF9.2998799999999998e-07
aF8.94624e-07
aF8.9493699999999996e-07
aF8.7635500000000001e-07
aF8.8002200000000002e-07
aF9.0443799999999996e-07
aF9.33491e-07
aF9.2027000000000002e-07
aF9.0379300000000005e-07
aF8.84655e-07
aF8.7854100000000001e-07
aF8.8684399999999997e-07
aF9.0311400000000005e-07
aF9.1479600000000001e-07
aF8.8322699999999997e-07
aF8.7599299999999997e-07
aF8.4642200000000003e-07
aF8.4448400000000001e-07
aF8.6351400000000004e-07
aF8.7434699999999996e-07
aF9.0132399999999998e-07
aF8.5826700000000004e-07
aF8.7522499999999995e-07
aF8.2907000000000005e-07
aF8.2890100000000005e-07
aF8.5320700000000002e-07
aF8.69201e-07
aF9.1429899999999995e-07
aF8.8106299999999995e-07
aF8.7648799999999998e-07
aF8.4540100000000001e-07
aF8.4490300000000003e-07
aF8.5023400000000002e-07
aF8.6838100000000003e-07
aF9.09867e-07
aF9.1961599999999997e-07
aF9.2719000000000003e-07
aF8.9898200000000002e-07
aF8.5816899999999999e-07
aF8.6496300000000001e-07
aF9.0295399999999997e-07
aF9.3869499999999998e-07
aF9.6083799999999996e-07
aF9.3488000000000002e-07
aF9.1762599999999999e-07
aF8.9525000000000003e-07
aF9.51534e-07
aF9.3833399999999996e-07
aF9.2391000000000002e-07
aF9.8225900000000003e-07
aF9.2348999999999997e-07
aF9.2371699999999999e-07
aF9.4475899999999997e-07
aF9.07995e-07
aF8.9266900000000004e-07
aF9.3075400000000005e-07
aF1.7186599999999999e-10
aF9.6239599999999998e-07
aF1.03067e-10
aF8.9660000000000002e-07
aF8.82668e-07
aF8.9116200000000005e-07
aF9.6088800000000007e-07
aF9.5521700000000002e-07
aF9.0938000000000001e-07
aF9.2051799999999998e-07
aF9.1369299999999995e-07
aF8.8861199999999996e-07
aF8.8180799999999998e-07
aF9.0383299999999999e-07
aF9.4808200000000001e-07
aF9.3632300000000004e-07
aF9.1869300000000001e-07
aF8.97581e-07
aF8.9131900000000004e-07
aF8.7334400000000001e-07
aF8.7800400000000001e-07
aF9.09261e-07
aF9.4475400000000004e-07
aF9.1809399999999999e-07
aF8.6089400000000003e-07
aF8.4596399999999999e-07
aF8.5917799999999999e-07
aF8.5384099999999995e-07
aF8.6361899999999997e-07
aF8.9324599999999998e-07
aF8.4703100000000001e-07
aF8.2777099999999998e-07
aF8.2109999999999996e-07
aF8.1553300000000003e-07
aF8.4404099999999995e-07
aF8.5731299999999997e-07
aF9.0060100000000003e-07
aF8.6165899999999997e-07
aF8.8396900000000002e-07
aF8.5184900000000002e-07
aF8.6796300000000003e-07
aF9.0443300000000004e-07
aF8.8738000000000005e-07
aF9.4350799999999995e-07
aF9.2925899999999997e-07
aF9.1985399999999997e-07
aF8.7985000000000003e-07
aF8.7722799999999997e-07
aF8.6445800000000005e-07
aF9.2133899999999999e-07
aF9.4510399999999996e-07
aF9.4026600000000004e-07
aF9.3746200000000003e-07
aF9.3718799999999999e-07
aF9.2529999999999995e-07
aF9.3438399999999998e-07
aF9.3056399999999999e-07
aF9.5492899999999991e-07
aF9.6184099999999991e-07
aF9.5540100000000002e-07
aF9.3693399999999996e-07
aF9.2691999999999999e-07
aF9.3544500000000005e-07
aF9.3768800000000003e-07
aF9.8311200000000008e-07
aF1.9015999999999999e-10
aF9.6416799999999998e-07
aF9.5089699999999999e-07
aF9.3622300000000003e-07
aF9.1262500000000001e-07
aF9.1093899999999995e-07
aF9.2815600000000002e-07
aF9.5788199999999989e-07
aF9.1290900000000001e-07
aF9.0755699999999998e-07
aF9.1268800000000005e-07
aF8.9632400000000003e-07
aF9.1709500000000005e-07
aF9.2049300000000004e-07
aF9.5241300000000002e-07
aF9.1593699999999995e-07
aF9.3001600000000001e-07
aF9.0166199999999999e-07
aF8.7828e-07
aF9.1033600000000003e-07
aF9.2215800000000004e-07
aF9.6317400000000007e-07
aF9.1962299999999995e-07
aF9.51906e-07
aF8.9944200000000001e-07
aF8.9023700000000003e-07
aF9.1968300000000002e-07
aF9.4886299999999996e-07
aF9.6641800000000004e-07
aF9.3820799999999998e-07
aF9.3147199999999996e-07
aF9.1008399999999996e-07
aF9.1800599999999999e-07
aF9.3250200000000002e-07
aF9.4666599999999999e-07
aF9.573140000000001e-07
aF9.8422300000000004e-07
aF9.8291e-07
aF9.7924899999999996e-07
aF9.6783999999999991e-07
aF9.6075999999999993e-07
aF9.4083800000000005e-07
aF9.7442299999999994e-07
aF2.26895e-10
aF9.7417699999999992e-07
aF9.5741699999999998e-07
aF9.3034799999999996e-07
aF9.6165500000000007e-07
aF9.6775300000000005e-07
aF9.3914399999999998e-07
aF9.8924499999999996e-07
aF9.2895299999999999e-07
aF9.4400500000000001e-07
aF9.1742800000000003e-07
aF8.9912999999999998e-07
aF9.0613299999999995e-07
aF9.1606499999999999e-07
aF9.7689999999999991e-07
aF9.3939500000000003e-07
aF9.4324300000000005e-07
aF9.2616900000000001e-07
aF9.2694599999999997e-07
aF9.5413600000000004e-07
aF9.8893799999999996e-07
aF4.0795699999999998e-07
aF1.8540799999999999e-10
aF9.9899100000000005e-07
aF9.6472799999999998e-07
aF9.6157100000000008e-07
aF9.9097199999999999e-07
aF2.0002499999999999e-10
aF2.08237e-10
aF3.9790300000000001e-07
aF4.0998599999999998e-07
aF1.9881000000000001e-10
aF9.8667599999999999e-07
aF1.8638699999999999e-10
aF1.90746e-10
aF1.9847299999999999e-10
aF4.2679199999999997e-07
asg42
(lp61
F2.3338e-08
aF9.9412699999999995e-09
aF6.5859900000000003e-09
aF8.0220499999999995e-07
aF7.4437400000000005e-07
aF7.7107099999999996e-07
aF6.7063700000000005e-07
aF9.72584e-07
aF3.63018e-09
aF4.0123499999999997e-09
aF4.1497600000000004e-09
aF4.4280400000000004e-09
aF5.3732599999999997e-09
aF4.8361400000000002e-09
aF4.2219700000000001e-09
aF4.2529800000000003e-09
aF4.2706200000000003e-09
aF4.1419800000000002e-09
aF4.10194e-09
aF4.6514799999999997e-09
aF4.7097400000000003e-09
aF4.0836499999999996e-09
aF3.9905000000000002e-09
aF4.0240399999999997e-09
aF3.9960799999999997e-09
aF4.0131900000000003e-09
aF4.4529599999999999e-09
aF4.7614300000000002e-09
aF4.1424500000000003e-09
aF3.9046799999999998e-09
aF3.8713999999999997e-09
aF3.8706299999999999e-09
aF3.93665e-09
aF4.2069300000000001e-09
aF4.6945100000000002e-09
aF4.1286400000000003e-09
aF3.91553e-09
aF3.8335999999999997e-09
aF3.8456099999999999e-09
aF3.9169e-09
aF4.0637800000000002e-09
aF4.4402499999999998e-09
aF4.1060200000000003e-09
aF3.8788000000000003e-09
aF3.7881500000000004e-09
aF3.7569699999999997e-09
aF3.7612599999999999e-09
aF3.7948199999999999e-09
aF4.0197500000000003e-09
aF3.8371200000000001e-09
aF3.6456900000000001e-09
aF3.5606299999999999e-09
aF3.4941599999999999e-09
aF3.4635299999999999e-09
aF3.4693200000000002e-09
aF3.5710100000000001e-09
aF3.49815e-09
aF3.2941600000000001e-09
aF3.1748699999999998e-09
aF3.0932799999999999e-09
aF3.05892e-09
aF3.07782e-09
aF3.1707400000000002e-09
aF3.1812300000000002e-09
aF2.9560899999999999e-09
aF2.8204800000000002e-09
aF2.7412e-09
aF2.7061399999999999e-09
aF2.7236500000000002e-09
aF2.8119899999999999e-09
aF2.8684700000000001e-09
aF2.6868100000000002e-09
aF2.5558400000000001e-09
aF2.4672099999999998e-09
aF2.4227699999999999e-09
aF2.4209000000000002e-09
aF2.4654999999999998e-09
aF2.54433e-09
aF2.4011900000000001e-09
aF2.30611e-09
aF2.2469700000000002e-09
aF2.2208300000000001e-09
aF2.2303e-09
aF2.28441e-09
aF2.4365900000000002e-09
aF2.3009599999999999e-09
aF2.2130599999999998e-09
aF2.1651500000000001e-09
aF2.1539599999999999e-09
aF2.16875e-09
aF2.28396e-09
aF2.6328599999999999e-09
aF2.4977899999999999e-09
aF2.2528699999999999e-09
aF2.19052e-09
aF2.1909900000000001e-09
aF2.2663800000000002e-09
aF2.4140000000000001e-09
aF2.8293700000000001e-09
aF2.9345599999999998e-09
aF2.6537300000000001e-09
aF2.6380800000000001e-09
aF2.7078000000000001e-09
aF2.8302499999999998e-09
aF3.0128299999999998e-09
aF3.3824599999999999e-09
aF3.7643100000000002e-09
aF3.40904e-09
aF3.36649e-09
aF3.4050400000000001e-09
aF3.5180000000000001e-09
aF3.7099400000000001e-09
aF4.0034100000000003e-09
aF4.5591700000000001e-09
aF4.0988199999999997e-09
aF3.9629500000000003e-09
aF3.9577899999999998e-09
aF4.0363600000000003e-09
aF4.16606e-09
aF4.3754700000000004e-09
aF4.7885199999999999e-09
aF4.4950899999999996e-09
aF4.42294e-09
aF4.4883400000000002e-09
aF4.5885500000000002e-09
aF4.6839499999999997e-09
aF4.7639799999999999e-09
aF4.85154e-09
aF4.8508900000000004e-09
aF4.8780400000000002e-09
aF4.9176800000000003e-09
aF4.9658900000000001e-09
aF5.0417899999999998e-09
aF5.1499100000000001e-09
aF5.3366099999999998e-09
aF5.3666799999999999e-09
aF5.28328e-09
aF5.2637800000000002e-09
aF5.2955000000000002e-09
aF5.3925500000000004e-09
aF5.5630300000000004e-09
aF5.8162900000000004e-09
aF5.9340800000000003e-09
aF5.7444600000000002e-09
aF5.6558000000000003e-09
aF5.6550299999999997e-09
aF5.7443599999999998e-09
aF5.9246099999999999e-09
aF6.1783300000000001e-09
aF6.3776600000000001e-09
aF6.1943599999999997e-09
aF6.0581500000000002e-09
aF5.9904499999999997e-09
aF5.9700899999999996e-09
aF5.9507399999999997e-09
aF5.9014100000000002e-09
aF6.0457200000000001e-09
aF5.7432400000000001e-09
aF5.6419699999999997e-09
aF5.5307100000000002e-09
aF5.3882099999999999e-09
aF5.23529e-09
aF5.2817999999999997e-09
aF5.8143300000000001e-09
aF5.3271400000000003e-09
aF5.0819299999999996e-09
aF5.0116100000000002e-09
aF5.0322199999999998e-09
aF5.16495e-09
aF5.4367599999999997e-09
aF5.9165900000000001e-09
aF5.7895200000000001e-09
aF5.5258299999999997e-09
aF5.45123e-09
aF5.4862399999999999e-09
aF5.6320599999999997e-09
aF5.89008e-09
aF6.2873199999999997e-09
aF6.3901500000000003e-09
aF6.0967800000000001e-09
aF5.984e-09
aF5.9879299999999996e-09
aF6.0685699999999999e-09
aF6.2238e-09
aF6.5006100000000004e-09
aF6.6950599999999998e-09
aF6.3719200000000001e-09
aF6.2242000000000001e-09
aF6.1747899999999999e-09
aF6.1821400000000003e-09
aF6.2247599999999999e-09
aF6.3478300000000004e-09
aF6.5396899999999998e-09
aF6.19331e-09
aF5.9709499999999999e-09
aF5.8778800000000004e-09
aF5.8886900000000003e-09
aF5.9871200000000003e-09
aF6.2523999999999996e-09
aF6.7303499999999996e-09
aF6.3709199999999998e-09
aF6.1054400000000004e-09
aF6.0022900000000004e-09
aF6.0240500000000001e-09
aF6.1415500000000002e-09
aF6.3947300000000003e-09
aF6.8146199999999998e-09
aF6.5907200000000002e-09
aF6.2752299999999996e-09
aF6.1020200000000004e-09
aF6.0281300000000004e-09
aF6.0643399999999998e-09
aF6.19112e-09
aF6.4371699999999996e-09
aF6.2966600000000001e-09
aF5.9454099999999996e-09
aF5.7225699999999996e-09
aF5.6096600000000003e-09
aF5.6098100000000001e-09
aF5.7019799999999998e-09
aF5.9108300000000004e-09
aF5.8760600000000001e-09
aF5.5132100000000002e-09
aF5.27063e-09
aF5.1383699999999999e-09
aF5.1026700000000001e-09
aF5.1434399999999998e-09
aF5.2590399999999997e-09
aF5.3244399999999999e-09
aF5.0633600000000002e-09
aF4.9081599999999997e-09
aF4.8319600000000003e-09
aF4.8278000000000002e-09
aF4.8782600000000001e-09
aF4.98319e-09
aF5.0910400000000002e-09
aF4.9776699999999998e-09
aF4.9192500000000004e-09
aF4.8974500000000003e-09
aF4.9147099999999999e-09
aF4.9697399999999998e-09
aF5.0242500000000003e-09
aF5.1138999999999999e-09
aF5.0154500000000001e-09
aF4.9453299999999999e-09
aF4.8716800000000003e-09
aF4.8114000000000002e-09
aF4.7875400000000002e-09
aF4.8139699999999997e-09
aF4.9330999999999998e-09
aF4.7732500000000002e-09
aF4.5444000000000001e-09
aF4.37796e-09
aF4.2784699999999996e-09
aF4.2557300000000002e-09
aF4.2946699999999996e-09
aF4.4367300000000002e-09
aF4.3924099999999997e-09
aF4.1941300000000003e-09
aF4.0991100000000003e-09
aF4.0398999999999997e-09
aF4.0070199999999997e-09
aF4.0110700000000003e-09
aF4.0719200000000001e-09
aF4.1297400000000003e-09
aF4.0853000000000004e-09
aF4.0933800000000002e-09
aF4.10946e-09
aF4.1331299999999998e-09
aF4.1884500000000004e-09
aF4.30434e-09
aF4.4201499999999999e-09
aF4.2191099999999999e-09
aF4.0622000000000003e-09
aF3.9598599999999996e-09
aF3.8939499999999998e-09
aF3.8922800000000001e-09
aF3.9447299999999999e-09
aF4.0632599999999999e-09
aF3.8652800000000001e-09
aF3.7082199999999998e-09
aF3.6042099999999999e-09
aF3.5593399999999998e-09
aF3.5809900000000001e-09
aF3.66692e-09
aF3.8145400000000004e-09
aF3.70298e-09
aF3.5592800000000001e-09
aF3.47805e-09
aF3.4436e-09
aF3.4567100000000002e-09
aF3.5254100000000001e-09
aF3.6475799999999999e-09
aF3.6362100000000002e-09
aF3.5339900000000001e-09
aF3.4545300000000001e-09
aF3.3949900000000001e-09
aF3.3673000000000001e-09
aF3.3995600000000002e-09
aF3.4943299999999999e-09
aF3.5072600000000001e-09
aF3.36027e-09
aF3.2655500000000002e-09
aF3.2056000000000002e-09
aF3.1758700000000001e-09
aF3.16604e-09
aF3.16795e-09
aF3.2365899999999999e-09
aF3.0412999999999998e-09
aF2.9319299999999998e-09
aF2.8291300000000001e-09
aF2.7463099999999998e-09
aF2.6865999999999998e-09
aF2.5935700000000002e-09
aF2.6442e-09
aF2.42748e-09
aF2.3519899999999999e-09
aF2.2380699999999999e-09
aF2.12862e-09
aF2.0354599999999999e-09
aF1.8770300000000001e-09
aF1.8188400000000001e-09
aF1.65279e-09
aF1.6245400000000001e-09
aF1.50945e-09
aF1.37863e-09
aF1.2898e-09
aF1.1424700000000001e-09
aF9.9087199999999993e-10
aF8.9425400000000002e-10
aF8.7674899999999999e-10
aF7.6836699999999998e-10
aF6.7068799999999997e-10
aF6.0036099999999999e-10
aF5.4085900000000002e-10
aF4.57576e-10
aF4.14227e-10
aF9.6300500000000007e-07
aF8.4666899999999997e-07
aF7.6376700000000004e-07
aF6.82756e-07
aF6.0267699999999996e-07
aF5.3106199999999999e-07
aF4.8198399999999998e-07
aF4.1187300000000002e-07
aF3.5808199999999999e-07
aF3.0615599999999998e-07
aF2.5616700000000002e-07
aF2.0897800000000001e-07
aF1.6407299999999999e-07
aF1.39271e-07
aF1.15782e-07
aF9.7517199999999997e-08
aF8.0520600000000002e-08
aF6.1869900000000005e-08
aF4.2469400000000003e-08
aF2.2246899999999999e-08
aF1.2254499999999999e-09
asg43
(lp62
F11
aF10
aF10
aF10
aF10
aF10
aF10
aF10
aF10
aF11
aF11
aF11
aF11
aF11
aF11
aF11
aF11
aF11
aF11
aF11
aF11
aF11
aF11
aF11
aF11
aF11
aF11
aF11
aF11
aF11
aF11
aF11
aF11
aF11
aF11
aF11
aF11
aF11
aF11
aF11
aF11
aF11
aF11
aF11
aF11
aF11
aF11
aF11
aF11
aF11
aF11
aF11
aF11
aF11
aF11
aF11
aF11
aF11
aF11
aF11
aF11
aF11
aF11
aF11
aF11
aF11
aF11
aF11
aF11
aF11
aF11
aF11
aF11
aF11
aF11
aF11
aF11
aF11
aF11
aF11
aF11
aF11
aF11
aF11
aF11
aF11
aF11
aF11
aF11
aF11
aF11
aF11
aF11
aF11
aF11
aF11
aF11
aF11
aF11
aF11
aF11
aF11
aF11
aF11
aF11
aF11
aF11
aF11
aF11
aF11
aF11
aF11
aF11
aF11
aF11
aF11
aF11
aF11
aF11
aF11
aF11
aF11
aF11
aF11
aF11
aF11
aF11
aF11
aF11
aF11
aF11
aF11
aF11
aF11
aF11
aF11
aF11
aF11
aF11
aF11
aF11
aF11
aF11
aF11
aF11
aF11
aF11
aF11
aF11
aF11
aF11
aF11
aF11
aF11
aF11
aF11
aF11
aF11
aF11
aF11
aF11
aF11
aF11
aF11
aF11
aF11
aF11
aF11
aF11
aF11
aF11
aF11
aF11
aF11
aF11
aF11
aF11
aF11
aF11
aF11
aF11
aF11
aF11
aF11
aF11
aF11
aF11
aF11
aF11
aF11
aF11
aF11
aF11
aF11
aF11
aF11
aF11
aF11
aF11
aF11
aF11
aF11
aF11
aF11
aF11
aF11
aF11
aF11
aF11
aF11
aF11
aF11
aF11
aF11
aF11
aF11
aF11
aF11
aF11
aF11
aF11
aF11
aF11
aF11
aF11
aF11
aF11
aF11
aF11
aF11
aF11
aF11
aF11
aF11
aF11
aF11
aF11
aF11
aF11
aF11
aF11
aF11
aF11
aF11
aF11
aF11
aF11
aF11
aF11
aF11
aF11
aF11
aF11
aF11
aF11
aF11
aF11
aF11
aF11
aF11
aF11
aF11
aF11
aF11
aF11
aF11
aF11
aF11
aF11
aF11
aF11
aF11
aF11
aF11
aF11
aF11
aF11
aF11
aF11
aF11
aF11
aF11
aF11
aF11
aF11
aF11
aF11
aF11
aF11
aF11
aF11
aF11
aF11
aF11
aF11
aF11
aF11
aF11
aF11
aF11
aF11
aF11
aF11
aF11
aF11
aF11
aF10
aF10
aF10
aF10
aF10
aF10
aF10
aF10
aF10
aF10
aF10
aF10
aF10
aF10
aF10
aF10
aF10
aF10
aF10
aF10
aF10
aF10
aF10
aF10
aF10
aF10
aF10
aF10
aF10
aF10
aF10
aF10
aF10
aF10
aF10
aF10
aF10
aF10
aF10
aF10
aF10
aF10
aF10
aF10
aF10
aF10
aF10
aF10
aF10
aF10
aF10
aF10
asg44
(lp63
F0.016699200000000001
aF0.0122895
aF0.0099705100000000001
aF0.0084015200000000009
aF0.0072192000000000003
aF0.0062715799999999997
aF0.0054903699999999996
aF0.0048255399999999997
aF0.0042518199999999999
aF0.0037545399999999998
aF0.0033294100000000001
aF0.0029710000000000001
aF0.0026651399999999999
aF0.00239201
aF0.0021530799999999999
aF0.0019678600000000001
aF0.00183947
aF0.00175219
aF0.0016845600000000001
aF0.0016228099999999999
aF0.0015478
aF0.00147679
aF0.0014272600000000001
aF0.00138123
aF0.00133741
aF0.0012974600000000001
aF0.0012629200000000001
aF0.0012254900000000001
aF0.0011908400000000001
aF0.0011730600000000001
aF0.00115354
aF0.00113572
aF0.0011218199999999999
aF0.00111125
aF0.00110239
aF0.00107807
aF0.0010778199999999999
aF0.00107884
aF0.00107938
aF0.0010799500000000001
aF0.00108322
aF0.00109011
aF0.0010713999999999999
aF0.0010719499999999999
aF0.00108113
aF0.0010867800000000001
aF0.00109081
aF0.0010956500000000001
aF0.0011018200000000001
aF0.0010847599999999999
aF0.0010768799999999999
aF0.00108563
aF0.0010923300000000001
aF0.0010953899999999999
aF0.00109764
aF0.0011009800000000001
aF0.00108442
aF0.00107059
aF0.0010727600000000001
aF0.00107547
aF0.00107541
aF0.0010731099999999999
aF0.00107157
aF0.0010573500000000001
aF0.0010359799999999999
aF0.0010325099999999999
aF0.0010319800000000001
aF0.0010277299999999999
aF0.0010215700000000001
aF0.00101735
aF0.0010083099999999999
aF0.00097982699999999995
aF0.00097097100000000005
aF0.00096965099999999998
aF0.00096578799999999998
aF0.00096087400000000002
aF0.00096008400000000005
aF0.00096329900000000003
aF0.00093365500000000003
aF0.00091856499999999998
aF0.00091980800000000004
aF0.00092070599999999998
aF0.00092225
aF0.00092648800000000005
aF0.00093568500000000001
aF0.00091517300000000003
aF0.00090169399999999998
aF0.00090277800000000002
aF0.00090767300000000001
aF0.00091327699999999999
aF0.00091995300000000005
aF0.00093059000000000002
aF0.00091819500000000001
aF0.00090513500000000005
aF0.00090409599999999996
aF0.00090894000000000001
aF0.00091490699999999996
aF0.00092172200000000004
aF0.00093052
aF0.00092473700000000002
aF0.00090961600000000003
aF0.00090605299999999998
aF0.00091033100000000001
aF0.000916032
aF0.00092354199999999996
aF0.000934032
aF0.00093577099999999996
aF0.00091715500000000001
aF0.00090949399999999995
aF0.000913622
aF0.00092056799999999997
aF0.00092987699999999996
aF0.00094122100000000001
aF0.00095043299999999999
aF0.00092843799999999996
aF0.00091933399999999995
aF0.00092442999999999996
aF0.00093175799999999998
aF0.00094156899999999996
aF0.00095270200000000004
aF0.00096658200000000001
aF0.00094049200000000002
aF0.000925039
aF0.00092783799999999995
aF0.00093675799999999999
aF0.00094810399999999996
aF0.00095969499999999999
aF0.000970534
aF0.00094915600000000004
aF0.00092911600000000001
aF0.00092920700000000004
aF0.00093970399999999997
aF0.00095067700000000003
aF0.00096017499999999996
aF0.00096966999999999995
aF0.00095586200000000003
aF0.00093460799999999997
aF0.000933887
aF0.00094466799999999996
aF0.00095571800000000004
aF0.00096620400000000002
aF0.00097692799999999995
aF0.00097033799999999995
aF0.000949036
aF0.00094527399999999996
aF0.00095616500000000003
aF0.00096757699999999996
aF0.00097931100000000007
aF0.00099222500000000001
aF0.0010002699999999999
aF0.00097525300000000004
aF0.00097110399999999998
aF0.00098282399999999998
aF0.00099317799999999994
aF0.0010042600000000001
aF0.00101582
aF0.00103006
aF0.0010056799999999999
aF0.00099829400000000005
aF0.0010099099999999999
aF0.001021
aF0.00102947
aF0.0010374399999999999
aF0.0010493099999999999
aF0.00102658
aF0.0010102900000000001
aF0.0010210099999999999
aF0.0010308299999999999
aF0.0010374900000000001
aF0.0010407599999999999
aF0.0010467499999999999
aF0.00103444
aF0.00101785
aF0.00102641
aF0.0010373299999999999
aF0.00104465
aF0.00104934
aF0.0010536300000000001
aF0.00104977
aF0.0010344600000000001
aF0.0010400400000000001
aF0.0010544700000000001
aF0.0010629400000000001
aF0.00107021
aF0.00107715
aF0.0010799900000000001
aF0.0010607100000000001
aF0.00106101
aF0.00107631
aF0.0010880900000000001
aF0.0010970699999999999
aF0.0011044399999999999
aF0.0011131800000000001
aF0.0010921800000000001
aF0.00108434
aF0.00109705
aF0.00110713
aF0.00111421
aF0.0011206199999999999
aF0.00112988
aF0.0011032699999999999
aF0.00108277
aF0.0010917399999999999
aF0.00110154
aF0.0011072
aF0.00111279
aF0.0011186600000000001
aF0.0010964900000000001
aF0.0010699699999999999
aF0.0010708499999999999
aF0.00107978
aF0.00108793
aF0.00109669
aF0.0011051399999999999
aF0.00109026
aF0.0010673900000000001
aF0.00106522
aF0.0010763299999999999
aF0.00108687
aF0.0010972499999999999
aF0.0011074399999999999
aF0.0011010499999999999
aF0.00107668
aF0.00107698
aF0.0010879500000000001
aF0.00109494
aF0.00109829
aF0.0011016299999999999
aF0.00109836
aF0.00107171
aF0.0010665900000000001
aF0.00107263
aF0.00107456
aF0.0010742900000000001
aF0.00107121
aF0.00107146
aF0.0010430000000000001
aF0.0010319299999999999
aF0.00103808
aF0.00104151
aF0.0010409900000000001
aF0.0010382
aF0.0010397399999999999
aF0.0010183900000000001
aF0.00100567
aF0.00101363
aF0.0010227299999999999
aF0.00102979
aF0.00103437
aF0.0010410599999999999
aF0.00103068
aF0.00101881
aF0.00102819
aF0.0010406599999999999
aF0.0010514400000000001
aF0.0010615399999999999
aF0.0010727499999999999
aF0.00107098
aF0.00105474
aF0.0010629599999999999
aF0.00107767
aF0.0010922499999999999
aF0.00110607
aF0.0011194099999999999
aF0.00112312
aF0.00110283
aF0.00110618
aF0.00111746
aF0.0011297200000000001
aF0.0011397
aF0.0011505
aF0.00115631
aF0.00112901
aF0.0011212800000000001
aF0.0011249599999999999
aF0.0011303999999999999
aF0.0011360400000000001
aF0.0011414999999999999
aF0.00114766
aF0.0011134300000000001
aF0.0010926899999999999
aF0.0010931300000000001
aF0.0010962599999999999
aF0.0010992599999999999
aF0.0011023199999999999
aF0.00110669
aF0.0010823199999999999
aF0.0010551
aF0.0010542100000000001
aF0.0010562900000000001
aF0.0010591400000000001
aF0.0010632599999999999
aF0.0010675700000000001
aF0.0010455799999999999
aF0.0010164200000000001
aF0.0010157
aF0.0010216400000000001
aF0.00102754
aF0.0010340099999999999
aF0.0010410199999999999
aF0.0010316699999999999
aF0.00100034
aF0.00099343799999999992
aF0.00099875099999999998
aF0.0010058700000000001
aF0.00101271
aF0.0010182399999999999
aF0.0010173999999999999
aF0.000987625
aF0.000978446
aF0.00098558900000000004
aF0.00099490300000000011
aF0.0010026
aF0.00100986
aF0.0010174800000000001
aF0.00098728100000000001
aF0.00097722900000000003
aF0.00098567800000000003
aF0.00099538899999999995
aF0.00100376
aF0.00101118
aF0.00102217
aF0.00099677300000000006
aF0.0009832459999999999
aF0.00099329299999999991
aF0.0010029100000000001
aF0.00101274
aF0.0010215700000000001
aF0.00103472
aF0.00101856
aF0.00100197
aF0.00101187
aF0.0010229099999999999
aF0.00103509
aF0.0010458100000000001
aF0.0010575999999999999
aF0.0010498300000000001
aF0.0010294499999999999
aF0.0010358699999999999
aF0.00104656
aF0.0010599400000000001
aF0.0010715900000000001
aF0.00108231
aF0.00107949
aF0.00105057
aF0.00104985
aF0.0010548000000000001
aF0.0010621300000000001
aF0.00106988
aF0.00107963
aF0.0010841799999999999
aF0.0010500399999999999
aF0.0010402899999999999
aF0.00104028
aF0.00104404
aF0.0010490499999999999
aF0.0010564999999999999
aF0.0010656400000000001
assg8
(lp64
sg10
(lp65
F0.0035000000000000001
aF0.0052500000000000003
aF0.0070000000000000001
aF0.0087500000000000008
aF0.010500000000000001
aF0.01225
aF0.014
aF0.01575
aF0.017500000000000002
aF0.01925
aF0.021000000000000001
aF0.022749999999999999
aF0.024500000000000001
aF0.026249999999999999
aF0.028000000000000001
aF0.029749999999999999
aF0.0315
aF0.033250000000000002
aF0.035000000000000003
aF0.036749999999999998
aF0.0385
aF0.040250000000000001
aF0.042000000000000003
aF0.043749999999999997
aF0.045499999999999999
aF0.04725
aF0.049000000000000002
aF0.050750000000000003
aF0.052499999999999998
aF0.05425
aF0.056000000000000001
aF0.057750000000000003
aF0.059499999999999997
aF0.061249999999999999
aF0.063
aF0.064750000000000002
aF0.066500000000000004
aF0.068250000000000005
aF0.070000000000000007
aF0.071749999999999994
aF0.073499999999999996
aF0.075249999999999997
aF0.076999999999999999
aF0.078750000000000001
aF0.080500000000000002
aF0.082250000000000004
aF0.084000000000000005
aF0.085750000000000007
aF0.087499999999999994
aF0.089249999999999996
aF0.090999999999999998
aF0.092749999999999999
aF0.094500000000000001
aF0.096250000000000002
aF0.098000000000000004
aF0.099750000000000005
aF0.10150000000000001
aF0.10324999999999999
aF0.105
aF0.10675
aF0.1085
aF0.11025
aF0.112
aF0.11375
aF0.11550000000000001
aF0.11724999999999999
aF0.11899999999999999
aF0.12075
aF0.1225
aF0.12425
aF0.126
aF0.12775
aF0.1295
aF0.13125000000000001
aF0.13300000000000001
aF0.13475000000000001
aF0.13650000000000001
aF0.13825000000000001
aF0.14000000000000001
aF0.14174999999999999
aF0.14349999999999999
aF0.14524999999999999
aF0.14699999999999999
aF0.14874999999999999
aF0.15049999999999999
aF0.15225
aF0.154
aF0.15575
aF0.1575
aF0.15925
aF0.161
aF0.16275000000000001
aF0.16450000000000001
aF0.16625000000000001
aF0.16800000000000001
aF0.16975000000000001
aF0.17150000000000001
aF0.17324999999999999
aF0.17499999999999999
aF0.17674999999999999
aF0.17849999999999999
aF0.18024999999999999
aF0.182
aF0.18375
aF0.1855
aF0.18725
aF0.189
aF0.19075
aF0.1925
aF0.19425000000000001
aF0.19600000000000001
aF0.19775000000000001
aF0.19950000000000001
aF0.20125000000000001
aF0.20300000000000001
aF0.20474999999999999
aF0.20649999999999999
aF0.20824999999999999
aF0.20999999999999999
aF0.21174999999999999
aF0.2135
aF0.21525
aF0.217
aF0.21875
aF0.2205
aF0.22225
aF0.224
aF0.22575000000000001
aF0.22750000000000001
aF0.22925000000000001
aF0.23100000000000001
aF0.23275000000000001
aF0.23449999999999999
aF0.23624999999999999
aF0.23799999999999999
aF0.23974999999999999
aF0.24149999999999999
aF0.24324999999999999
aF0.245
aF0.24675
aF0.2485
aF0.25024999999999997
aF0.252
aF0.25374999999999998
aF0.2555
aF0.25724999999999998
aF0.25900000000000001
aF0.26074999999999998
aF0.26250000000000001
aF0.26424999999999998
aF0.26600000000000001
aF0.26774999999999999
aF0.26950000000000002
aF0.27124999999999999
aF0.27300000000000002
aF0.27474999999999999
aF0.27650000000000002
aF0.27825
aF0.28000000000000003
aF0.28175
aF0.28349999999999997
aF0.28525
aF0.28699999999999998
aF0.28875000000000001
aF0.29049999999999998
aF0.29225000000000001
aF0.29399999999999998
aF0.29575000000000001
aF0.29749999999999999
aF0.29925000000000002
aF0.30099999999999999
aF0.30275000000000002
aF0.30449999999999999
aF0.30625000000000002
aF0.308
aF0.30975000000000003
aF0.3115
aF0.31324999999999997
aF0.315
aF0.31674999999999998
aF0.31850000000000001
aF0.32024999999999998
aF0.32200000000000001
aF0.32374999999999998
aF0.32550000000000001
aF0.32724999999999999
aF0.32900000000000001
aF0.33074999999999999
aF0.33250000000000002
aF0.33424999999999999
aF0.33600000000000002
aF0.33774999999999999
aF0.33950000000000002
aF0.34125
aF0.34300000000000003
aF0.34475
aF0.34649999999999997
aF0.34825
aF0.34999999999999998
aF0.35175000000000001
aF0.35349999999999998
aF0.35525000000000001
aF0.35699999999999998
aF0.35875000000000001
aF0.36049999999999999
aF0.36225000000000002
aF0.36399999999999999
aF0.36575000000000002
aF0.36749999999999999
aF0.36925000000000002
aF0.371
aF0.37275000000000003
aF0.3745
aF0.37624999999999997
aF0.378
aF0.37974999999999998
aF0.38150000000000001
aF0.38324999999999998
aF0.38500000000000001
aF0.38674999999999998
aF0.38850000000000001
aF0.39024999999999999
aF0.39200000000000002
aF0.39374999999999999
aF0.39550000000000002
aF0.39724999999999999
aF0.39900000000000002
aF0.40075
aF0.40250000000000002
aF0.40425
aF0.40600000000000003
aF0.40775
aF0.40949999999999998
aF0.41125
aF0.41299999999999998
aF0.41475000000000001
aF0.41649999999999998
aF0.41825000000000001
aF0.41999999999999998
aF0.42175000000000001
aF0.42349999999999999
aF0.42525000000000002
aF0.42699999999999999
aF0.42875000000000002
aF0.43049999999999999
aF0.43225000000000002
aF0.434
aF0.43575000000000003
aF0.4375
aF0.43924999999999997
aF0.441
aF0.44274999999999998
aF0.44450000000000001
aF0.44624999999999998
aF0.44800000000000001
aF0.44974999999999998
aF0.45150000000000001
aF0.45324999999999999
aF0.45500000000000002
aF0.45674999999999999
aF0.45850000000000002
aF0.46024999999999999
aF0.46200000000000002
aF0.46375
aF0.46550000000000002
aF0.46725
aF0.46899999999999997
aF0.47075
aF0.47249999999999998
aF0.47425
aF0.47599999999999998
aF0.47775000000000001
aF0.47949999999999998
aF0.48125000000000001
aF0.48299999999999998
aF0.48475000000000001
aF0.48649999999999999
aF0.48825000000000002
aF0.48999999999999999
aF0.49175000000000002
aF0.49349999999999999
aF0.49525000000000002
aF0.497
aF0.49875000000000003
aF0.50049999999999994
aF0.50224999999999997
aF0.504
aF0.50575000000000003
aF0.50749999999999995
aF0.50924999999999998
aF0.51100000000000001
aF0.51275000000000004
aF0.51449999999999996
aF0.51624999999999999
aF0.51800000000000002
aF0.51975000000000005
aF0.52149999999999996
aF0.52324999999999999
aF0.52500000000000002
aF0.52675000000000005
aF0.52849999999999997
aF0.53025
aF0.53200000000000003
aF0.53374999999999995
aF0.53549999999999998
aF0.53725000000000001
aF0.53900000000000003
aF0.54074999999999995
aF0.54249999999999998
aF0.54425000000000001
aF0.54600000000000004
aF0.54774999999999996
aF0.54949999999999999
aF0.55125000000000002
aF0.55300000000000005
aF0.55474999999999997
aF0.55649999999999999
aF0.55825000000000002
aF0.56000000000000005
aF0.56174999999999997
aF0.5635
aF0.56525000000000003
aF0.56699999999999995
aF0.56874999999999998
aF0.57050000000000001
aF0.57225000000000004
aF0.57399999999999995
aF0.57574999999999998
aF0.57750000000000001
aF0.57925000000000004
aF0.58099999999999996
aF0.58274999999999999
aF0.58450000000000002
aF0.58625000000000005
aF0.58799999999999997
aF0.58975
aF0.59150000000000003
aF0.59325000000000006
aF0.59499999999999997
aF0.59675
aF0.59850000000000003
aF0.60024999999999995
aF0.60199999999999998
aF0.60375000000000001
aF0.60550000000000004
aF0.60724999999999996
aF0.60899999999999999
aF0.61075000000000002
aF0.61250000000000004
aF0.61424999999999996
aF0.61599999999999999
aF0.61775000000000002
aF0.61950000000000005
aF0.62124999999999997
aF0.623
aF0.62475000000000003
aF0.62649999999999995
aF0.62824999999999998
assS'5'
(dp66
g3
I5
sg4
(dp67
sg6
(dp68
sg8
(lp69
sg10
(lp70
ssS'4'
(dp71
g3
I4
sg4
(dp72
S'cpu'
p73
I01
sS'clock'
p74
I01
ssg6
(dp75
g73
(lp76
F0.52000000000000002
aF0.52000000000000002
aF0.52000000000000002
aF0.5299999999999998
aF0.58000000000000007
aF0.54000000000000004
aF0.54999999999999982
aF0.52000000000000046
aF0.58999999999999986
aF0.49000000000000021
aF0.48999999999999932
aF0.49000000000000021
aF0.5600000000000005
aF0.64999999999999947
aF0.51999999999999957
aF0.55000000000000071
aF0.52999999999999936
aF0.5600000000000005
aF0.66999999999999993
aF0.55000000000000071
aF0.49000000000000021
aF0.52999999999999936
aF0.5
aF0.49000000000000021
aF0.51999999999999957
aF0.57000000000000028
aF0.51999999999999957
aF0.51999999999999957
aF0.60999999999999943
aF0.55000000000000071
aF0.48000000000000043
aF0.53000000000000114
aF0.50999999999999801
aF0.53000000000000114
aF0.53999999999999915
aF0.55000000000000071
aF0.53000000000000114
aF0.5
aF0.60999999999999943
aF0.53999999999999915
aF0.53999999999999915
aF0.55000000000000071
aF0.53999999999999915
aF0.56000000000000227
aF0.50999999999999801
aF0.51999999999999957
aF0.51000000000000156
aF0.57000000000000028
aF0.64000000000000057
aF0.53999999999999915
aF0.53999999999999915
aF0.53000000000000114
aF0.53999999999999915
aF0.53999999999999915
aF0.5400000000000027
aF0.55999999999999872
aF0.53000000000000114
aF0.54999999999999716
aF0.60000000000000142
aF0.5
aF0.52000000000000313
aF0.53999999999999915
aF0.51999999999999602
aF0.49000000000000199
aF0.52000000000000313
aF0.53999999999999915
aF0.50999999999999801
aF0.5
aF0.60999999999999943
aF0.52000000000000313
aF0.51999999999999602
aF0.57000000000000028
aF0.53999999999999915
aF0.53999999999999915
aF0.49000000000000199
aF0.53999999999999915
aF0.52000000000000313
aF0.54999999999999716
aF0.63000000000000256
aF0.57000000000000028
aF0.51999999999999602
aF0.52000000000000313
aF0.5
aF0.53999999999999915
aF0.53999999999999915
aF0.56000000000000227
aF0.53000000000000114
aF0.52999999999999403
aF0.59000000000000341
aF0.50999999999999801
aF0.51000000000000512
aF0.54999999999999716
aF0.54999999999999716
aF0.56000000000000227
aF0.53999999999999915
aF0.50999999999999801
aF0.51000000000000512
aF0.48999999999999488
aF0.63000000000000256
aF0.50999999999999801
aF0.55000000000000426
aF0.53000000000000114
aF0.48999999999999488
aF0.51000000000000512
aF0.50999999999999801
aF0.53000000000000114
aF0.50999999999999801
aF0.53000000000000114
aF0.62999999999999545
aF0.5
aF0.54000000000000625
aF0.50999999999999801
aF0.53000000000000114
aF0.54999999999999716
aF0.57000000000000028
aF0.52000000000000313
aF0.52999999999999403
aF0.53999999999999915
aF0.6600000000000108
aF0.52999999999998693
aF0.55000000000001137
aF0.57999999999999829
aF0.59000000000000341
aF0.5899999999999892
aF0.60999999999999943
aF0.55000000000001137
aF0.55999999999998806
aF0.52000000000001023
aF0.68999999999999773
aF0.53999999999999204
aF0.57999999999999829
aF0.51000000000000512
aF0.57000000000000739
aF0.51999999999999602
aF0.59000000000000341
aF0.53999999999999204
aF0.60000000000000853
aF0.55999999999998806
aF0.64000000000000057
aF0.5
aF0.56000000000000227
aF0.54000000000000625
aF0.56999999999999318
aF0.59000000000000341
aF0.56000000000000227
aF0.53000000000000114
aF0.54999999999999716
aF0.51999999999999602
aF0.68000000000000682
aF0.5
aF0.57999999999999829
aF0.51999999999999602
aF0.54999999999999716
aF0.51000000000000512
aF0.57000000000000739
aF0.50999999999999091
aF0.57000000000000739
aF0.51999999999999602
aF0.65000000000000568
aF0.48999999999999488
aF0.53000000000000114
aF0.53000000000000114
aF0.56000000000000227
aF0.52999999999998693
aF0.55000000000001137
aF0.53000000000000114
aF0.53000000000000114
aF0.5
aF0.66999999999998749
aF0.52000000000001023
aF0.56999999999999318
aF0.5
aF0.54999999999999716
aF0.5
aF0.55000000000001137
aF0.52999999999998693
aF0.57000000000000739
aF0.54999999999999716
aF0.65999999999999659
aF0.52000000000001023
aF0.53999999999999204
aF0.5
aF0.57000000000000739
aF0.53000000000000114
aF0.57999999999999829
aF0.53000000000000114
aF0.5899999999999892
aF0.51000000000000512
aF0.62999999999999545
aF0.51000000000000512
aF0.56000000000000227
aF0.51999999999999602
aF0.54999999999999716
aF0.53000000000000114
aF0.59000000000000341
aF0.48999999999999488
aF0.54000000000000625
aF0.51999999999999602
aF0.65000000000000568
aF0.53999999999999204
aF0.56000000000000227
aF0.54999999999999716
aF0.54000000000000625
aF0.51000000000000512
aF0.60999999999999943
aF0.50999999999999091
aF0.56000000000000227
aF0.54999999999999716
aF0.70000000000000284
aF0.51999999999999602
aF0.54000000000000625
aF0.51999999999999602
aF0.59000000000000341
aF0.56000000000000227
aF0.57999999999999829
aF0.51999999999999602
aF0.54999999999999716
aF0.52000000000001023
aF0.64000000000000057
aF0.53000000000000114
aF0.57999999999999829
aF0.53000000000000114
aF0.56000000000000227
aF0.51999999999999602
aF0.56000000000000227
aF0.51999999999999602
aF0.57999999999999829
aF0.54000000000000625
aF0.66999999999998749
aF0.56000000000000227
aF0.57000000000000739
aF0.53999999999999204
aF0.59000000000001762
aF0.55999999999997385
aF0.58000000000001251
aF0.53000000000000114
aF0.56000000000000227
aF0.55000000000001137
aF0.6799999999999784
aF0.52000000000001023
aF0.57999999999998408
aF0.56000000000000227
aF0.58000000000001251
aF0.50999999999999091
aF0.5700000000000216
aF0.50999999999999091
aF0.57999999999998408
aF0.53000000000000114
aF0.68000000000000682
aF0.55000000000001137
aF0.56000000000000227
aF0.51999999999998181
aF0.5700000000000216
aF0.51999999999998181
aF0.56000000000000227
aF0.53999999999999204
aF0.60000000000002274
aF0.53000000000000114
aF0.71999999999999886
aF0.48999999999998067
aF0.58000000000001251
aF0.50999999999999091
aF0.58000000000001251
aF0.50999999999999091
aF0.58000000000001251
aF0.50999999999999091
aF0.59000000000000341
aF0.50999999999999091
aF0.67000000000001592
aF0.52999999999997272
aF0.58000000000001251
aF0.55000000000001137
aF0.56999999999999318
aF0.53000000000000114
aF0.53999999999999204
aF0.52000000000001023
aF0.56999999999999318
aF0.53000000000000114
aF0.66999999999998749
aF0.53000000000000114
aF0.58000000000001251
aF0.52000000000001023
aF0.56999999999999318
aF0.53000000000000114
aF0.56999999999999318
aF0.53999999999999204
aF0.61000000000001364
aF0.53000000000000114
aF0.66999999999998749
aF0.51000000000001933
aF0.58999999999997499
aF0.54000000000002046
aF0.62000000000000455
aF0.51999999999998181
aF0.59999999999999432
aF0.5
aF0.59000000000000341
aF0.53000000000000114
aF0.70000000000001705
aF0.53999999999999204
aF0.59999999999999432
aF0.53000000000000114
aF0.55000000000001137
aF0.56999999999999318
aF0.59000000000000341
aF0.53000000000000114
aF0.60999999999998522
aF0.54000000000002046
aF0.69999999999998863
aF0.52000000000001023
aF0.59999999999999432
aF0.54999999999998295
aF0.60000000000002274
aF0.56999999999999318
aF0.60999999999998522
aF0.54000000000002046
aF0.58999999999997499
aF0.51000000000001933
aF0.66999999999998749
aF0.54000000000002046
aF0.60999999999998522
aF0.56000000000000227
aF0.56999999999999318
aF0.52000000000001023
aF0.56999999999999318
aF0.52000000000001023
aF0.57999999999998408
aF0.5700000000000216
aF0.72999999999998977
aF0.53000000000000114
aF0.59000000000000341
aF0.50999999999999091
aF0.58000000000001251
aF0.50999999999999091
aF0.59000000000000341
aF0.56000000000000227
aF0.56999999999999318
aF0.56000000000000227
aF0.68000000000000682
aF0.51999999999998181
aF0.58000000000001251
aF0.54999999999998295
aF0.60000000000002274
aF0.56000000000000227
aF0.61999999999997613
aF0.53000000000000114
aF0.56000000000000227
aF0.56000000000000227
aF0.67000000000001592
aF0.51999999999998181
aF0.59999999999999432
aF0.54000000000002046
aF0.60999999999998522
aF0.53000000000000114
aF0.58000000000001251
aF0.50999999999999091
aF0.61000000000001364
aF0.53999999999999204
asg74
(lp77
F1
aF0
aF1
aF0
aF1
aF0
aF1
aF1
aF0
aF1
aF0
aF1
aF0
aF1
aF0
aF1
aF0
aF1
aF1
aF0
aF1
aF0
aF1
aF0
aF1
aF0
aF1
aF0
aF1
aF1
aF0
aF1
aF0
aF1
aF0
aF1
aF0
aF1
aF0
aF1
aF0
aF1
aF0
aF1
aF1
aF0
aF1
aF0
aF1
aF0
aF1
aF0
aF1
aF1
aF0
aF1
aF0
aF1
aF0
aF1
aF0
aF1
aF0
aF1
aF0
aF1
aF0
aF1
aF1
aF0
aF1
aF0
aF1
aF0
aF1
aF0
aF1
aF0
aF1
aF1
aF0
aF1
aF0
aF1
aF0
aF1
aF0
aF1
aF0
aF1
aF0
aF1
aF0
aF1
aF1
aF0
aF1
aF0
aF1
aF0
aF1
aF0
aF1
aF0
aF1
aF0
aF1
aF0
aF1
aF1
aF0
aF1
aF0
aF1
aF0
aF1
aF0
aF1
aF0
aF1
aF1
aF0
aF1
aF0
aF1
aF0
aF1
aF1
aF0
aF1
aF0
aF1
aF0
aF1
aF1
aF0
aF1
aF0
aF1
aF0
aF1
aF1
aF0
aF1
aF0
aF1
aF0
aF1
aF1
aF0
aF1
aF0
aF1
aF0
aF1
aF0
aF1
aF0
aF1
aF0
aF1
aF1
aF0
aF1
aF0
aF1
aF0
aF1
aF0
aF1
aF0
aF1
aF1
aF0
aF1
aF0
aF1
aF0
aF1
aF0
aF1
aF0
aF1
aF1
aF0
aF1
aF0
aF1
aF0
aF1
aF0
aF1
aF1
aF0
aF1
aF0
aF1
aF0
aF1
aF0
aF1
aF1
aF0
aF1
aF0
aF1
aF0
aF1
aF1
aF0
aF1
aF0
aF1
aF0
aF1
aF0
aF1
aF0
aF1
aF1
aF0
aF1
aF0
aF1
aF0
aF1
aF0
aF1
aF1
aF0
aF1
aF0
aF1
aF0
aF1
aF1
aF0
aF1
aF0
aF1
aF0
aF1
aF1
aF0
aF1
aF0
aF1
aF0
aF1
aF1
aF0
aF1
aF0
aF1
aF0
aF1
aF0
aF1
aF1
aF0
aF1
aF0
aF1
aF0
aF1
aF0
aF1
aF1
aF0
aF1
aF0
aF1
aF0
aF1
aF0
aF1
aF1
aF0
aF1
aF0
aF1
aF0
aF1
aF1
aF0
aF1
aF0
aF1
aF0
aF1
aF1
aF0
aF1
aF0
aF1
aF0
aF1
aF0
aF1
aF1
aF0
aF1
aF0
aF1
aF1
aF0
aF1
aF0
aF1
aF0
aF1
aF1
aF0
aF1
aF0
aF1
aF0
aF1
aF1
aF0
aF1
aF0
aF1
aF0
aF1
aF1
aF0
aF1
aF0
aF1
aF1
aF0
aF1
aF0
aF1
aF0
aF1
aF0
aF1
aF1
aF0
aF1
aF0
aF1
aF1
aF0
aF1
aF0
aF1
aF0
aF1
aF1
aF0
aF1
aF0
aF1
aF0
aF1
assg8
(lp78
sg10
(lp79
F0.0035000000000000001
aF0.0052500000000000003
aF0.0070000000000000001
aF0.0087500000000000008
aF0.010500000000000001
aF0.01225
aF0.014
aF0.01575
aF0.017500000000000002
aF0.01925
aF0.021000000000000001
aF0.022749999999999999
aF0.024500000000000001
aF0.026249999999999999
aF0.028000000000000001
aF0.029749999999999999
aF0.0315
aF0.033250000000000002
aF0.035000000000000003
aF0.036749999999999998
aF0.0385
aF0.040250000000000001
aF0.042000000000000003
aF0.043749999999999997
aF0.045499999999999999
aF0.04725
aF0.049000000000000002
aF0.050750000000000003
aF0.052499999999999998
aF0.05425
aF0.056000000000000001
aF0.057750000000000003
aF0.059499999999999997
aF0.061249999999999999
aF0.063
aF0.064750000000000002
aF0.066500000000000004
aF0.068250000000000005
aF0.070000000000000007
aF0.071749999999999994
aF0.073499999999999996
aF0.075249999999999997
aF0.076999999999999999
aF0.078750000000000001
aF0.080500000000000002
aF0.082250000000000004
aF0.084000000000000005
aF0.085750000000000007
aF0.087499999999999994
aF0.089249999999999996
aF0.090999999999999998
aF0.092749999999999999
aF0.094500000000000001
aF0.096250000000000002
aF0.098000000000000004
aF0.099750000000000005
aF0.10150000000000001
aF0.10324999999999999
aF0.105
aF0.10675
aF0.1085
aF0.11025
aF0.112
aF0.11375
aF0.11550000000000001
aF0.11724999999999999
aF0.11899999999999999
aF0.12075
aF0.1225
aF0.12425
aF0.126
aF0.12775
aF0.1295
aF0.13125000000000001
aF0.13300000000000001
aF0.13475000000000001
aF0.13650000000000001
aF0.13825000000000001
aF0.14000000000000001
aF0.14174999999999999
aF0.14349999999999999
aF0.14524999999999999
aF0.14699999999999999
aF0.14874999999999999
aF0.15049999999999999
aF0.15225
aF0.154
aF0.15575
aF0.1575
aF0.15925
aF0.161
aF0.16275000000000001
aF0.16450000000000001
aF0.16625000000000001
aF0.16800000000000001
aF0.16975000000000001
aF0.17150000000000001
aF0.17324999999999999
aF0.17499999999999999
aF0.17674999999999999
aF0.17849999999999999
aF0.18024999999999999
aF0.182
aF0.18375
aF0.1855
aF0.18725
aF0.189
aF0.19075
aF0.1925
aF0.19425000000000001
aF0.19600000000000001
aF0.19775000000000001
aF0.19950000000000001
aF0.20125000000000001
aF0.20300000000000001
aF0.20474999999999999
aF0.20649999999999999
aF0.20824999999999999
aF0.20999999999999999
aF0.21174999999999999
aF0.2135
aF0.21525
aF0.217
aF0.21875
aF0.2205
aF0.22225
aF0.224
aF0.22575000000000001
aF0.22750000000000001
aF0.22925000000000001
aF0.23100000000000001
aF0.23275000000000001
aF0.23449999999999999
aF0.23624999999999999
aF0.23799999999999999
aF0.23974999999999999
aF0.24149999999999999
aF0.24324999999999999
aF0.245
aF0.24675
aF0.2485
aF0.25024999999999997
aF0.252
aF0.25374999999999998
aF0.2555
aF0.25724999999999998
aF0.25900000000000001
aF0.26074999999999998
aF0.26250000000000001
aF0.26424999999999998
aF0.26600000000000001
aF0.26774999999999999
aF0.26950000000000002
aF0.27124999999999999
aF0.27300000000000002
aF0.27474999999999999
aF0.27650000000000002
aF0.27825
aF0.28000000000000003
aF0.28175
aF0.28349999999999997
aF0.28525
aF0.28699999999999998
aF0.28875000000000001
aF0.29049999999999998
aF0.29225000000000001
aF0.29399999999999998
aF0.29575000000000001
aF0.29749999999999999
aF0.29925000000000002
aF0.30099999999999999
aF0.30275000000000002
aF0.30449999999999999
aF0.30625000000000002
aF0.308
aF0.30975000000000003
aF0.3115
aF0.31324999999999997
aF0.315
aF0.31674999999999998
aF0.31850000000000001
aF0.32024999999999998
aF0.32200000000000001
aF0.32374999999999998
aF0.32550000000000001
aF0.32724999999999999
aF0.32900000000000001
aF0.33074999999999999
aF0.33250000000000002
aF0.33424999999999999
aF0.33600000000000002
aF0.33774999999999999
aF0.33950000000000002
aF0.34125
aF0.34300000000000003
aF0.34475
aF0.34649999999999997
aF0.34825
aF0.34999999999999998
aF0.35175000000000001
aF0.35349999999999998
aF0.35525000000000001
aF0.35699999999999998
aF0.35875000000000001
aF0.36049999999999999
aF0.36225000000000002
aF0.36399999999999999
aF0.36575000000000002
aF0.36749999999999999
aF0.36925000000000002
aF0.371
aF0.37275000000000003
aF0.3745
aF0.37624999999999997
aF0.378
aF0.37974999999999998
aF0.38150000000000001
aF0.38324999999999998
aF0.38500000000000001
aF0.38674999999999998
aF0.38850000000000001
aF0.39024999999999999
aF0.39200000000000002
aF0.39374999999999999
aF0.39550000000000002
aF0.39724999999999999
aF0.39900000000000002
aF0.40075
aF0.40250000000000002
aF0.40425
aF0.40600000000000003
aF0.40775
aF0.40949999999999998
aF0.41125
aF0.41299999999999998
aF0.41475000000000001
aF0.41649999999999998
aF0.41825000000000001
aF0.41999999999999998
aF0.42175000000000001
aF0.42349999999999999
aF0.42525000000000002
aF0.42699999999999999
aF0.42875000000000002
aF0.43049999999999999
aF0.43225000000000002
aF0.434
aF0.43575000000000003
aF0.4375
aF0.43924999999999997
aF0.441
aF0.44274999999999998
aF0.44450000000000001
aF0.44624999999999998
aF0.44800000000000001
aF0.44974999999999998
aF0.45150000000000001
aF0.45324999999999999
aF0.45500000000000002
aF0.45674999999999999
aF0.45850000000000002
aF0.46024999999999999
aF0.46200000000000002
aF0.46375
aF0.46550000000000002
aF0.46725
aF0.46899999999999997
aF0.47075
aF0.47249999999999998
aF0.47425
aF0.47599999999999998
aF0.47775000000000001
aF0.47949999999999998
aF0.48125000000000001
aF0.48299999999999998
aF0.48475000000000001
aF0.48649999999999999
aF0.48825000000000002
aF0.48999999999999999
aF0.49175000000000002
aF0.49349999999999999
aF0.49525000000000002
aF0.497
aF0.49875000000000003
aF0.50049999999999994
aF0.50224999999999997
aF0.504
aF0.50575000000000003
aF0.50749999999999995
aF0.50924999999999998
aF0.51100000000000001
aF0.51275000000000004
aF0.51449999999999996
aF0.51624999999999999
aF0.51800000000000002
aF0.51975000000000005
aF0.52149999999999996
aF0.52324999999999999
aF0.52500000000000002
aF0.52675000000000005
aF0.52849999999999997
aF0.53025
aF0.53200000000000003
aF0.53374999999999995
aF0.53549999999999998
aF0.53725000000000001
aF0.53900000000000003
aF0.54074999999999995
aF0.54249999999999998
aF0.54425000000000001
aF0.54600000000000004
aF0.54774999999999996
aF0.54949999999999999
aF0.55125000000000002
aF0.55300000000000005
aF0.55474999999999997
aF0.55649999999999999
aF0.55825000000000002
aF0.56000000000000005
aF0.56174999999999997
aF0.5635
aF0.56525000000000003
aF0.56699999999999995
aF0.56874999999999998
aF0.57050000000000001
aF0.57225000000000004
aF0.57399999999999995
aF0.57574999999999998
aF0.57750000000000001
aF0.57925000000000004
aF0.58099999999999996
aF0.58274999999999999
aF0.58450000000000002
aF0.58625000000000005
aF0.58799999999999997
aF0.58975
aF0.59150000000000003
aF0.59325000000000006
aF0.59499999999999997
aF0.59675
aF0.59850000000000003
aF0.60024999999999995
aF0.60199999999999998
aF0.60375000000000001
aF0.60550000000000004
aF0.60724999999999996
aF0.60899999999999999
aF0.61075000000000002
aF0.61250000000000004
aF0.61424999999999996
aF0.61599999999999999
aF0.61775000000000002
aF0.61950000000000005
aF0.62124999999999997
aF0.623
aF0.62475000000000003
aF0.62649999999999995
aF0.62824999999999998
assS'7'
(dp80
g3
I7
sg4
(dp81
S'max'
p82
I01
sS'mean'
p83
I01
ssg6
(dp84
g82
(lp85
F0.38084400000000002
aF0.35137600000000002
aF0.35178900000000002
aF0.35231499999999999
aF0.35283100000000001
aF0.35335699999999998
aF0.35391400000000001
aF0.35426000000000002
aF0.35454200000000002
aF0.35483999999999999
aF0.355155
aF0.35549399999999998
aF0.35586099999999998
aF0.35625400000000002
aF0.35657299999999997
aF0.35682799999999998
aF0.35708400000000001
aF0.35735800000000001
aF0.35765999999999998
aF0.35801500000000003
aF0.358429
aF0.35879100000000003
aF0.35903499999999999
aF0.35928700000000002
aF0.35958699999999999
aF0.35999700000000001
aF0.36050599999999999
aF0.36111599999999999
aF0.36170600000000003
aF0.36204999999999998
aF0.36242799999999997
aF0.36286800000000002
aF0.36348200000000003
aF0.36424800000000002
aF0.36516999999999999
aF0.366174
aF0.36662800000000001
aF0.36716199999999999
aF0.36778499999999997
aF0.36846000000000001
aF0.36921799999999999
aF0.37003900000000001
aF0.37101800000000001
aF0.37132900000000002
aF0.371668
aF0.37208999999999998
aF0.37258000000000002
aF0.37315700000000002
aF0.37387500000000001
aF0.374726
aF0.375025
aF0.37519400000000003
aF0.37545200000000001
aF0.37581999999999999
aF0.37621199999999999
aF0.37668699999999999
aF0.37723899999999999
aF0.37745800000000002
aF0.37740499999999999
aF0.37746499999999999
aF0.37756899999999999
aF0.37774000000000002
aF0.378002
aF0.37836900000000001
aF0.37858000000000003
aF0.37843500000000002
aF0.37837300000000001
aF0.37839099999999998
aF0.37850800000000001
aF0.37872499999999998
aF0.379081
aF0.37943100000000002
aF0.37926900000000002
aF0.37919999999999998
aF0.37923299999999999
aF0.37934899999999999
aF0.37954900000000003
aF0.37986900000000001
aF0.380297
aF0.38014199999999998
aF0.38008199999999998
aF0.38009799999999999
aF0.38017699999999999
aF0.38031700000000002
aF0.38053799999999999
aF0.38087799999999999
aF0.38053199999999998
aF0.38009900000000002
aF0.37971300000000002
aF0.379355
aF0.37916499999999997
aF0.37926100000000001
aF0.37962400000000002
aF0.379575
aF0.379332
aF0.37909599999999999
aF0.378938
aF0.37879499999999999
aF0.37867299999999998
aF0.37862499999999999
aF0.37874999999999998
aF0.37850499999999998
aF0.37826199999999999
aF0.37802200000000002
aF0.37801699999999999
aF0.37839299999999998
aF0.37882500000000002
aF0.37905299999999997
aF0.37876900000000002
aF0.37879299999999999
aF0.37898700000000002
aF0.37932700000000003
aF0.379747
aF0.38054199999999999
aF0.38128000000000001
aF0.38137500000000002
aF0.38152799999999998
aF0.381716
aF0.38245899999999999
aF0.38317800000000002
aF0.38397700000000001
aF0.38473499999999999
aF0.38489400000000001
aF0.38501800000000003
aF0.38527899999999998
aF0.38609900000000003
aF0.38688099999999997
aF0.38761200000000001
aF0.38827899999999999
aF0.38859199999999999
aF0.38869199999999998
aF0.38875300000000002
aF0.38886900000000002
aF0.38903900000000002
aF0.38955099999999998
aF0.39004499999999998
aF0.39033600000000002
aF0.39032499999999998
aF0.39018900000000001
aF0.389982
aF0.38994800000000002
aF0.38986799999999999
aF0.38975500000000002
aF0.38997399999999999
aF0.39080399999999998
aF0.39146599999999998
aF0.39206800000000003
aF0.392625
aF0.393094
aF0.39341999999999999
aF0.39369999999999999
aF0.39379500000000001
aF0.39380399999999999
aF0.394206
aF0.39475300000000002
aF0.39526
aF0.39566600000000002
aF0.39607599999999998
aF0.39624199999999998
aF0.39634399999999997
aF0.39687
aF0.39755800000000002
aF0.39822000000000002
aF0.39887299999999998
aF0.39947199999999999
aF0.39987800000000001
aF0.400177
aF0.40050200000000002
aF0.40080300000000002
aF0.40139399999999997
aF0.402252
aF0.40305200000000002
aF0.40370099999999998
aF0.40425899999999998
aF0.40478900000000001
aF0.40530699999999997
aF0.40581899999999999
aF0.40631299999999998
aF0.40677400000000002
aF0.40706300000000001
aF0.407194
aF0.407275
aF0.40724300000000002
aF0.40732800000000002
aF0.40781600000000001
aF0.40828599999999998
aF0.40860299999999999
aF0.40871400000000002
aF0.40874700000000003
aF0.40867700000000001
aF0.40851399999999999
aF0.40824500000000002
aF0.40788799999999997
aF0.40733999999999998
aF0.40687899999999999
aF0.40647899999999998
aF0.40593699999999999
aF0.40523599999999999
aF0.40435599999999999
aF0.403285
aF0.40330700000000003
aF0.403082
aF0.40273399999999998
aF0.40222799999999997
aF0.40164100000000003
aF0.40091900000000003
aF0.40009499999999998
aF0.40002399999999999
aF0.39963300000000002
aF0.39906199999999997
aF0.398366
aF0.39752900000000002
aF0.39658700000000002
aF0.39665299999999998
aF0.39677800000000002
aF0.39659299999999997
aF0.39619399999999999
aF0.39563599999999999
aF0.39491799999999999
aF0.39406200000000002
aF0.39423399999999997
aF0.39429900000000001
aF0.394148
aF0.39372299999999999
aF0.39318399999999998
aF0.39337499999999997
aF0.39371099999999998
aF0.39430199999999999
aF0.395065
aF0.39596799999999999
aF0.39677699999999999
aF0.39760400000000001
aF0.39844600000000002
aF0.399308
aF0.40025500000000003
aF0.40149000000000001
aF0.402702
aF0.40376499999999999
aF0.40475899999999998
aF0.40568700000000002
aF0.406528
aF0.407281
aF0.40790500000000002
aF0.40835900000000003
aF0.40858699999999998
aF0.409383
aF0.41010000000000002
aF0.41070200000000001
aF0.41144900000000001
aF0.41199999999999998
aF0.41231600000000002
aF0.41221400000000002
aF0.41176699999999999
aF0.41100799999999998
aF0.41013300000000003
aF0.41057300000000002
aF0.41084300000000001
aF0.41090199999999999
aF0.41059899999999999
aF0.40994999999999998
aF0.40903800000000001
aF0.40786699999999998
aF0.40645700000000001
aF0.40481099999999998
aF0.40293099999999998
aF0.40083000000000002
aF0.39911200000000002
aF0.39827299999999999
aF0.397258
aF0.39604800000000001
aF0.39467200000000002
aF0.39311699999999999
aF0.39303900000000003
aF0.39366400000000001
aF0.39419300000000002
aF0.39470100000000002
aF0.39516800000000002
aF0.39557100000000001
aF0.39602900000000002
aF0.39651999999999998
aF0.39660499999999999
aF0.39668900000000001
aF0.39676499999999998
aF0.39678999999999998
aF0.39687600000000001
aF0.39701700000000001
aF0.39726299999999998
aF0.39724399999999999
aF0.39726499999999998
aF0.39763500000000002
aF0.39806999999999998
aF0.398586
aF0.39918900000000002
aF0.399893
aF0.40045999999999998
aF0.40096700000000002
aF0.40154499999999999
aF0.40218599999999999
aF0.40292299999999998
aF0.40407599999999999
aF0.40540900000000002
aF0.40662399999999999
aF0.40765099999999999
aF0.40869299999999997
aF0.40973999999999999
aF0.41081000000000001
aF0.411879
aF0.41290399999999999
aF0.41381499999999999
aF0.41432099999999999
aF0.414713
aF0.41503400000000001
aF0.415933
aF0.41689799999999999
aF0.41783500000000001
aF0.41867599999999999
aF0.41900300000000001
aF0.41920200000000002
aF0.419269
aF0.419215
aF0.41900999999999999
aF0.41866799999999998
aF0.418184
aF0.41774699999999998
aF0.41722199999999998
aF0.41695399999999999
aF0.41672599999999999
aF0.41632999999999998
aF0.41582000000000002
aF0.415188
aF0.41408800000000001
aF0.413213
aF0.41237099999999999
aF0.41145199999999998
aF0.41048800000000002
aF0.40947699999999998
aF0.40843600000000002
aF0.40709899999999999
aF0.40550999999999998
aF0.40455600000000003
aF0.40355099999999999
aF0.40251999999999999
aF0.40151399999999998
aF0.40051700000000001
aF0.39929900000000002
aF0.39775199999999999
aF0.39623000000000003
aF0.39517600000000003
aF0.39549099999999998
aF0.39588299999999998
aF0.396679
aF0.397511
aF0.39791100000000001
aF0.39830399999999999
aF0.39866800000000002
aF0.39905400000000002
aF0.39944499999999999
aF0.39979599999999998
asg83
(lp86
F0.064613900000000002
aF0.063938700000000001
aF0.063638
aF0.063464199999999998
aF0.063346700000000006
aF0.063270999999999994
aF0.063214800000000002
aF0.063141900000000001
aF0.063085299999999997
aF0.063047099999999995
aF0.0630246
aF0.063018599999999994
aF0.063030199999999995
aF0.063058500000000003
aF0.063082899999999997
aF0.063111299999999995
aF0.063153000000000001
aF0.063206300000000007
aF0.063271400000000005
aF0.063349299999999997
aF0.063440300000000005
aF0.063530900000000001
aF0.063612799999999997
aF0.063703499999999996
aF0.063806100000000004
aF0.063920500000000005
aF0.064049700000000001
aF0.064193700000000006
aF0.064337000000000005
aF0.064452700000000002
aF0.064575499999999994
aF0.064705799999999994
aF0.064842700000000003
aF0.064988500000000005
aF0.065148999999999999
aF0.065314200000000003
aF0.065430100000000005
aF0.065552700000000005
aF0.065680699999999995
aF0.065813499999999997
aF0.065955399999999997
aF0.066104800000000005
aF0.066262600000000005
aF0.066363400000000003
aF0.066465099999999999
aF0.066572800000000001
aF0.066686700000000002
aF0.0668102
aF0.066939399999999996
aF0.067074900000000007
aF0.067165799999999998
aF0.067246799999999995
aF0.067334000000000005
aF0.0674294
aF0.067530699999999999
aF0.067636199999999994
aF0.067746399999999998
aF0.067828899999999998
aF0.067891800000000002
aF0.067959500000000006
aF0.068035200000000004
aF0.068116800000000005
aF0.068203700000000006
aF0.068298800000000007
aF0.068381600000000001
aF0.068435200000000002
aF0.068496299999999996
aF0.068565200000000007
aF0.068648000000000001
aF0.068741300000000005
aF0.0688439
aF0.068942400000000001
aF0.068987900000000005
aF0.069040400000000002
aF0.0690992
aF0.069168800000000003
aF0.069244899999999998
aF0.069328500000000001
aF0.069417400000000004
aF0.069435999999999998
aF0.069458699999999998
aF0.069486199999999998
aF0.069523600000000005
aF0.069565600000000005
aF0.069609400000000002
aF0.069661500000000001
aF0.069652699999999998
aF0.069635600000000006
aF0.069625500000000007
aF0.069625699999999999
aF0.069625500000000007
aF0.069626400000000005
aF0.069635699999999995
aF0.069599800000000003
aF0.069545899999999994
aF0.069501800000000002
aF0.069465499999999999
aF0.069429599999999994
aF0.069395899999999996
aF0.069366999999999998
aF0.069311399999999995
aF0.069228100000000001
aF0.069156700000000002
aF0.069092700000000007
aF0.069031800000000004
aF0.068973300000000001
aF0.0689192
aF0.068850900000000007
aF0.068747699999999995
aF0.068660600000000002
aF0.068581900000000001
aF0.068507600000000002
aF0.068439700000000006
aF0.068378099999999997
aF0.068316000000000002
aF0.068205500000000002
aF0.0681147
aF0.068038100000000004
aF0.067965899999999996
aF0.067899899999999999
aF0.067840600000000001
aF0.067787899999999998
aF0.067686399999999994
aF0.067598500000000006
aF0.067529900000000004
aF0.067468700000000006
aF0.067412899999999998
aF0.067362599999999995
aF0.067319199999999996
aF0.067242300000000005
aF0.0671678
aF0.067107200000000006
aF0.0670568
aF0.067012799999999997
aF0.066975999999999994
aF0.066944900000000002
aF0.066898200000000005
aF0.066849099999999995
aF0.066811099999999998
aF0.066784999999999997
aF0.066771999999999998
aF0.066767099999999996
aF0.0667624
aF0.066745600000000002
aF0.066711800000000002
aF0.066688600000000001
aF0.066677600000000004
aF0.0666765
aF0.066685700000000001
aF0.066717299999999993
aF0.066739400000000004
aF0.066728200000000001
aF0.066722400000000001
aF0.066726400000000005
aF0.066730999999999999
aF0.066738699999999998
aF0.066754499999999994
aF0.066775799999999996
aF0.066762699999999994
aF0.066752000000000006
aF0.066744999999999999
aF0.066742800000000005
aF0.066742200000000002
aF0.066751000000000005
aF0.0667716
aF0.066761600000000004
aF0.066748500000000002
aF0.066734799999999997
aF0.0667243
aF0.066722699999999996
aF0.066725499999999993
aF0.066736500000000004
aF0.066732200000000005
aF0.066721600000000006
aF0.066714899999999994
aF0.066709900000000003
aF0.066713499999999995
aF0.066725699999999999
aF0.066746200000000006
aF0.0667605
aF0.066760399999999998
aF0.066759700000000005
aF0.066766900000000004
aF0.066779500000000006
aF0.066803000000000001
aF0.066833100000000006
aF0.066860900000000001
aF0.0668681
aF0.066871600000000003
aF0.066879599999999997
aF0.0668932
aF0.066914199999999993
aF0.066946599999999995
aF0.066983600000000004
aF0.066986699999999996
aF0.0669965
aF0.067009200000000005
aF0.067026100000000005
aF0.067053199999999993
aF0.067087900000000006
aF0.067135799999999995
aF0.067142999999999994
aF0.067152000000000003
aF0.067163899999999999
aF0.067183300000000001
aF0.067207299999999998
aF0.067241400000000007
aF0.067291500000000004
aF0.067312700000000003
aF0.067332000000000003
aF0.067360799999999998
aF0.067402000000000004
aF0.067455200000000007
aF0.067519399999999993
aF0.067594899999999999
aF0.067639699999999997
aF0.067666299999999999
aF0.067697099999999996
aF0.067735799999999999
aF0.067795800000000003
aF0.0678787
aF0.067972400000000002
aF0.068045499999999995
aF0.068075399999999994
aF0.068100099999999997
aF0.068129499999999996
aF0.0681673
aF0.068215899999999996
aF0.0682725
aF0.068321199999999999
aF0.068329200000000007
aF0.068338300000000005
aF0.068349199999999999
aF0.068362000000000006
aF0.068376400000000004
aF0.068401199999999995
aF0.068432000000000007
aF0.068425600000000003
aF0.068421999999999997
aF0.068418999999999994
aF0.068421700000000002
aF0.068430400000000002
aF0.068443100000000007
aF0.0684665
aF0.068458699999999997
aF0.068443900000000002
aF0.068425899999999998
aF0.0684086
aF0.0684028
aF0.068406800000000004
aF0.068421800000000005
aF0.068418400000000004
aF0.068399000000000001
aF0.068376400000000004
aF0.068351200000000001
aF0.068336099999999997
aF0.068335999999999994
aF0.068345699999999995
aF0.068345500000000003
aF0.068324200000000002
aF0.068301299999999995
aF0.068274899999999999
aF0.068258799999999994
aF0.068254700000000001
aF0.068257399999999996
aF0.068259799999999995
aF0.068238400000000005
aF0.068219199999999994
aF0.068201800000000007
aF0.068188600000000002
aF0.068184300000000003
aF0.068185899999999994
aF0.068194500000000005
aF0.068176700000000007
aF0.068165500000000004
aF0.068157800000000004
aF0.068157800000000004
aF0.068166199999999996
aF0.068185800000000005
aF0.068221299999999999
aF0.068227999999999997
aF0.068245200000000006
aF0.0682759
aF0.068315799999999996
aF0.068366399999999994
aF0.068428299999999997
aF0.068508600000000003
aF0.068563499999999999
aF0.068616399999999994
aF0.068680199999999997
aF0.068752999999999995
aF0.068830799999999998
aF0.068919300000000003
aF0.069023600000000004
aF0.069101800000000005
aF0.069164600000000007
aF0.069224900000000006
aF0.069286200000000006
aF0.069351800000000005
aF0.069429900000000003
aF0.069523299999999996
aF0.069601099999999999
aF0.069634100000000004
aF0.069666400000000003
aF0.069697300000000004
aF0.0697324
aF0.069775799999999999
aF0.069834599999999997
aF0.069894999999999999
aF0.069894100000000001
aF0.069890400000000005
aF0.069890099999999997
aF0.069893800000000006
aF0.069903000000000007
aF0.069928599999999994
aF0.069968699999999995
aF0.069942699999999997
aF0.069918400000000006
aF0.069899699999999995
aF0.069885100000000006
aF0.069878499999999996
aF0.0698849
aF0.069910799999999995
aF0.069881799999999994
aF0.069844500000000004
aF0.069809700000000002
aF0.069781700000000002
aF0.069764199999999998
aF0.069759299999999996
aF0.069770600000000002
aF0.069745299999999996
aF0.069700100000000001
aF0.069654800000000003
aF0.069616999999999998
aF0.0695886
aF0.069574899999999995
aF0.069577200000000006
aF0.069559200000000002
aF0.069514999999999993
aF0.069476300000000005
aF0.069445800000000002
aF0.069429599999999994
aF0.069426600000000005
aF0.069439500000000001
aF0.069442299999999998
aF0.069417999999999994
aF0.069405900000000006
aF0.069403300000000001
aF0.069415400000000002
aF0.069446400000000005
aF0.069497299999999998
aF0.069553100000000007
aF0.069569199999999998
aF0.069593600000000005
aF0.069626599999999997
aF0.069668300000000002
aF0.069727899999999995
aF0.069810300000000006
assg8
(lp87
sg10
(lp88
F0.0035000000000000001
aF0.0052500000000000003
aF0.0070000000000000001
aF0.0087500000000000008
aF0.010500000000000001
aF0.01225
aF0.014
aF0.01575
aF0.017500000000000002
aF0.01925
aF0.021000000000000001
aF0.022749999999999999
aF0.024500000000000001
aF0.026249999999999999
aF0.028000000000000001
aF0.029749999999999999
aF0.0315
aF0.033250000000000002
aF0.035000000000000003
aF0.036749999999999998
aF0.0385
aF0.040250000000000001
aF0.042000000000000003
aF0.043749999999999997
aF0.045499999999999999
aF0.04725
aF0.049000000000000002
aF0.050750000000000003
aF0.052499999999999998
aF0.05425
aF0.056000000000000001
aF0.057750000000000003
aF0.059499999999999997
aF0.061249999999999999
aF0.063
aF0.064750000000000002
aF0.066500000000000004
aF0.068250000000000005
aF0.070000000000000007
aF0.071749999999999994
aF0.073499999999999996
aF0.075249999999999997
aF0.076999999999999999
aF0.078750000000000001
aF0.080500000000000002
aF0.082250000000000004
aF0.084000000000000005
aF0.085750000000000007
aF0.087499999999999994
aF0.089249999999999996
aF0.090999999999999998
aF0.092749999999999999
aF0.094500000000000001
aF0.096250000000000002
aF0.098000000000000004
aF0.099750000000000005
aF0.10150000000000001
aF0.10324999999999999
aF0.105
aF0.10675
aF0.1085
aF0.11025
aF0.112
aF0.11375
aF0.11550000000000001
aF0.11724999999999999
aF0.11899999999999999
aF0.12075
aF0.1225
aF0.12425
aF0.126
aF0.12775
aF0.1295
aF0.13125000000000001
aF0.13300000000000001
aF0.13475000000000001
aF0.13650000000000001
aF0.13825000000000001
aF0.14000000000000001
aF0.14174999999999999
aF0.14349999999999999
aF0.14524999999999999
aF0.14699999999999999
aF0.14874999999999999
aF0.15049999999999999
aF0.15225
aF0.154
aF0.15575
aF0.1575
aF0.15925
aF0.161
aF0.16275000000000001
aF0.16450000000000001
aF0.16625000000000001
aF0.16800000000000001
aF0.16975000000000001
aF0.17150000000000001
aF0.17324999999999999
aF0.17499999999999999
aF0.17674999999999999
aF0.17849999999999999
aF0.18024999999999999
aF0.182
aF0.18375
aF0.1855
aF0.18725
aF0.189
aF0.19075
aF0.1925
aF0.19425000000000001
aF0.19600000000000001
aF0.19775000000000001
aF0.19950000000000001
aF0.20125000000000001
aF0.20300000000000001
aF0.20474999999999999
aF0.20649999999999999
aF0.20824999999999999
aF0.20999999999999999
aF0.21174999999999999
aF0.2135
aF0.21525
aF0.217
aF0.21875
aF0.2205
aF0.22225
aF0.224
aF0.22575000000000001
aF0.22750000000000001
aF0.22925000000000001
aF0.23100000000000001
aF0.23275000000000001
aF0.23449999999999999
aF0.23624999999999999
aF0.23799999999999999
aF0.23974999999999999
aF0.24149999999999999
aF0.24324999999999999
aF0.245
aF0.24675
aF0.2485
aF0.25024999999999997
aF0.252
aF0.25374999999999998
aF0.2555
aF0.25724999999999998
aF0.25900000000000001
aF0.26074999999999998
aF0.26250000000000001
aF0.26424999999999998
aF0.26600000000000001
aF0.26774999999999999
aF0.26950000000000002
aF0.27124999999999999
aF0.27300000000000002
aF0.27474999999999999
aF0.27650000000000002
aF0.27825
aF0.28000000000000003
aF0.28175
aF0.28349999999999997
aF0.28525
aF0.28699999999999998
aF0.28875000000000001
aF0.29049999999999998
aF0.29225000000000001
aF0.29399999999999998
aF0.29575000000000001
aF0.29749999999999999
aF0.29925000000000002
aF0.30099999999999999
aF0.30275000000000002
aF0.30449999999999999
aF0.30625000000000002
aF0.308
aF0.30975000000000003
aF0.3115
aF0.31324999999999997
aF0.315
aF0.31674999999999998
aF0.31850000000000001
aF0.32024999999999998
aF0.32200000000000001
aF0.32374999999999998
aF0.32550000000000001
aF0.32724999999999999
aF0.32900000000000001
aF0.33074999999999999
aF0.33250000000000002
aF0.33424999999999999
aF0.33600000000000002
aF0.33774999999999999
aF0.33950000000000002
aF0.34125
aF0.34300000000000003
aF0.34475
aF0.34649999999999997
aF0.34825
aF0.34999999999999998
aF0.35175000000000001
aF0.35349999999999998
aF0.35525000000000001
aF0.35699999999999998
aF0.35875000000000001
aF0.36049999999999999
aF0.36225000000000002
aF0.36399999999999999
aF0.36575000000000002
aF0.36749999999999999
aF0.36925000000000002
aF0.371
aF0.37275000000000003
aF0.3745
aF0.37624999999999997
aF0.378
aF0.37974999999999998
aF0.38150000000000001
aF0.38324999999999998
aF0.38500000000000001
aF0.38674999999999998
aF0.38850000000000001
aF0.39024999999999999
aF0.39200000000000002
aF0.39374999999999999
aF0.39550000000000002
aF0.39724999999999999
aF0.39900000000000002
aF0.40075
aF0.40250000000000002
aF0.40425
aF0.40600000000000003
aF0.40775
aF0.40949999999999998
aF0.41125
aF0.41299999999999998
aF0.41475000000000001
aF0.41649999999999998
aF0.41825000000000001
aF0.41999999999999998
aF0.42175000000000001
aF0.42349999999999999
aF0.42525000000000002
aF0.42699999999999999
aF0.42875000000000002
aF0.43049999999999999
aF0.43225000000000002
aF0.434
aF0.43575000000000003
aF0.4375
aF0.43924999999999997
aF0.441
aF0.44274999999999998
aF0.44450000000000001
aF0.44624999999999998
aF0.44800000000000001
aF0.44974999999999998
aF0.45150000000000001
aF0.45324999999999999
aF0.45500000000000002
aF0.45674999999999999
aF0.45850000000000002
aF0.46024999999999999
aF0.46200000000000002
aF0.46375
aF0.46550000000000002
aF0.46725
aF0.46899999999999997
aF0.47075
aF0.47249999999999998
aF0.47425
aF0.47599999999999998
aF0.47775000000000001
aF0.47949999999999998
aF0.48125000000000001
aF0.48299999999999998
aF0.48475000000000001
aF0.48649999999999999
aF0.48825000000000002
aF0.48999999999999999
aF0.49175000000000002
aF0.49349999999999999
aF0.49525000000000002
aF0.497
aF0.49875000000000003
aF0.50049999999999994
aF0.50224999999999997
aF0.504
aF0.50575000000000003
aF0.50749999999999995
aF0.50924999999999998
aF0.51100000000000001
aF0.51275000000000004
aF0.51449999999999996
aF0.51624999999999999
aF0.51800000000000002
aF0.51975000000000005
aF0.52149999999999996
aF0.52324999999999999
aF0.52500000000000002
aF0.52675000000000005
aF0.52849999999999997
aF0.53025
aF0.53200000000000003
aF0.53374999999999995
aF0.53549999999999998
aF0.53725000000000001
aF0.53900000000000003
aF0.54074999999999995
aF0.54249999999999998
aF0.54425000000000001
aF0.54600000000000004
aF0.54774999999999996
aF0.54949999999999999
aF0.55125000000000002
aF0.55300000000000005
aF0.55474999999999997
aF0.55649999999999999
aF0.55825000000000002
aF0.56000000000000005
aF0.56174999999999997
aF0.5635
aF0.56525000000000003
aF0.56699999999999995
aF0.56874999999999998
aF0.57050000000000001
aF0.57225000000000004
aF0.57399999999999995
aF0.57574999999999998
aF0.57750000000000001
aF0.57925000000000004
aF0.58099999999999996
aF0.58274999999999999
aF0.58450000000000002
aF0.58625000000000005
aF0.58799999999999997
aF0.58975
aF0.59150000000000003
aF0.59325000000000006
aF0.59499999999999997
aF0.59675
aF0.59850000000000003
aF0.60024999999999995
aF0.60199999999999998
aF0.60375000000000001
aF0.60550000000000004
aF0.60724999999999996
aF0.60899999999999999
aF0.61075000000000002
aF0.61250000000000004
aF0.61424999999999996
aF0.61599999999999999
aF0.61775000000000002
aF0.61950000000000005
aF0.62124999999999997
aF0.623
aF0.62475000000000003
aF0.62649999999999995
aF0.62824999999999998
assS'6'
(dp89
g3
I6
sg4
(dp90
S'omega_max'
p91
I00
sS'omega_min'
p92
I00
sS'omega_avg'
p93
I00
sS'k_min'
p94
I00
sS'k_max'
p95
I00
sS'k_avg'
p96
I00
ssg6
(dp97
g91
(lp98
F1051.6400000000001
aF0
aF0
aF0
aF0
aF0
aF0
asg92
(lp99
F-0.65478400000000003
aF0
aF0
aF0
aF0
aF0
aF0
asg93
(lp100
F289.214
aF0
aF0
aF0
aF0
aF0
aF0
asg94
(lp101
F0
aF-8.2039600000000004e-08
aF-1.9348600000000001e-06
aF-9.5540700000000002e-06
aF-2.9190400000000002e-06
aF-5.7992600000000003e-06
aF0
asg95
(lp102
F0
aF0.375
aF0.375
aF0.375
aF0.375
aF0.375
aF0
asg96
(lp103
F0
aF0.100469
aF0.100448
aF0.100052
aF0.100186
aF0.100205
aF0
assg8
(lp104
sg10
(lp105
F0.0035000000000000001
aF0.44450000000000001
aF0.44800000000000001
aF0.52324999999999999
aF0.57750000000000001
aF0.57925000000000004
aF0.62824999999999998
ass.(dp106
S'1'
(dp107
g3
I1
sS'data'
p108
I2
sS'spec'
p109
(dp110
S'logscale'
p111
I01
sS'name'
p112
S'Custom01_linear'
p113
sS'with'
p114
S'lines'
p115
sS'expr'
p116
S''
sS'forbidden'
p117
(lp118
S'final'
p119
aS'iterations'
p120
asS'enabled'
p121
I01
sS'theTitle'
p122
S'Residuals'
p123
sS'titles'
p124
(lp125
sS'alternateAxis'
p126
(lp127
sS'raisit'
p128
I00
sS'persist'
p129
I00
sS'xlabel'
p130
S'Time [s]'
p131
sS'type'
p132
S'regular'
p133
sS'accumulation'
p134
S'first'
p135
ssS'id'
p136
S'linear'
p137
ssS'3'
(dp138
g3
I3
sg108
I6
sg109
(dp139
g111
I00
sg112
S'Custom03_bounding'
p140
sS'with'
p141
g115
sg116
S''
sg117
(lp142
sg121
I01
sg122
S'Bounded variables'
p143
sg124
(lp144
sg126
g127
sg128
I00
sg129
I00
sg130
g131
sg132
g133
sg134
g135
ssg136
S'bounding'
p145
ssS'2'
(dp146
g3
I2
sg108
I1
sg109
(dp147
g111
I00
sg112
S'Custom02_continuity'
p148
sS'with'
p149
g115
sg116
S''
sg117
g142
sg121
I01
sg122
S'Continuity'
p150
sg124
(lp151
sg126
(lp152
S'Global'
p153
asg128
I00
sg129
I00
sg130
g131
sg132
g133
sg134
g135
ssg136
S'continuity'
p154
ss.